Archive member included to satisfy reference by file (symbol)

/opt/poky/2.2.1/sysroots/cortexa8hf-neon-poky-linux-gnueabi/usr/lib/arm-poky-linux-gnueabi/6.2.0/libgcc.a(_udivsi3.o)
                              ./obj/rems.o (__aeabi_uidiv)
/opt/poky/2.2.1/sysroots/cortexa8hf-neon-poky-linux-gnueabi/usr/lib/arm-poky-linux-gnueabi/6.2.0/libgcc.a(_divsi3.o)
                              ./obj/util.o (__aeabi_idiv)
/opt/poky/2.2.1/sysroots/cortexa8hf-neon-poky-linux-gnueabi/usr/lib/arm-poky-linux-gnueabi/6.2.0/libgcc.a(_aeabi_ldivmod.o)
                              ./obj/util.o (__aeabi_ldivmod)
/opt/poky/2.2.1/sysroots/cortexa8hf-neon-poky-linux-gnueabi/usr/lib/arm-poky-linux-gnueabi/6.2.0/libgcc.a(_dvmd_lnx.o)
                              /opt/poky/2.2.1/sysroots/cortexa8hf-neon-poky-linux-gnueabi/usr/lib/arm-poky-linux-gnueabi/6.2.0/libgcc.a(_aeabi_ldivmod.o) (__aeabi_ldiv0)
/opt/poky/2.2.1/sysroots/cortexa8hf-neon-poky-linux-gnueabi/usr/lib/arm-poky-linux-gnueabi/6.2.0/libgcc.a(_udivmoddi4.o)
                              /opt/poky/2.2.1/sysroots/cortexa8hf-neon-poky-linux-gnueabi/usr/lib/arm-poky-linux-gnueabi/6.2.0/libgcc.a(_aeabi_ldivmod.o) (__udivmoddi4)
/opt/poky/2.2.1/sysroots/cortexa8hf-neon-poky-linux-gnueabi/usr/lib/libc_nonshared.a(elf-init.oS)
                              /opt/poky/2.2.1/sysroots/cortexa8hf-neon-poky-linux-gnueabi/usr/lib/crt1.o (__libc_csu_init)

Allocating common symbols
Common symbol       size              file

m_PAU_C_Req         0x28              ./obj/PAU_comm.o
auto_rst_req        0x4               ./obj/uda_proc.o
Hidden_AID_idx      0x7d0             ./obj/protocol.o
RU_ARM_SUPP         0x1b              ./obj/protocol.o
m_Uda               0x2c              ./obj/main.o
SIM_Auto_Install_Set_Req
                    0x1               ./obj/SIM.o
Reg_ALC__Cnt        0x10              ./obj/main.o
Reg_TDD2__Cnt       0x8               ./obj/main.o
alarm_rpt_pause_req
                    0x1               ./obj/nms_alarm.o
f_Req               0x8               ./obj/main.o
m_PAU_Ctrl          0x17c             ./obj/PAU_comm.o
Reg_TDD__Cnt        0x4               ./obj/main.o
PSU_Link_Fail       0x1               ./obj/psu_comm.o
m_St                0x112c            ./obj/main.o
Reg_VSS_DL_flag     0x19c             ./obj/main.o
Ro_IP_Set_Req       0x1               ./obj/udp_comm.o
Reg_DSP_FA_MIMO_Addr
                    0x860             ./obj/main.o
AC_Fail_St          0x1               ./obj/algorithm_rf.o
Auto_Wr__Log        0x27c4            ./obj/nms_alarm.o
GUI_ST_AID_idx      0x7d0             ./obj/protocol.o
Inv_rd_en_timer     0x20              ./obj/inventory.o
zip_header          0x40              ./obj/down_load.o
Reg_CFR_Addr        0x30              ./obj/main.o
Reg_TDD_Addr        0x84              ./obj/main.o
m_AMP_tmp_tbl_Alpha
                    0xf0              ./obj/main.o
AAU_T_Pattern_Alpha_q_x_gain
                    0x1000            ./obj/FPGA_Reg.o
m_Reg_Sts           0x125c            ./obj/FPGA_Reg.o
pReg_VSS_UL_Addr    0x1350            ./obj/main.o
Reg_RFU_CTRL_Addr   0x40              ./obj/main.o
AufoConfigFlag      0xb6              ./obj/auto_cofig_proc.o
pReg_AXI_CPRI_Addr  0xf0              ./obj/main.o
info_PSU            0x8               ./obj/down_load.o
info_FPGA           0x8               ./obj/down_load.o
Rvs_Amp_SD          0x4               ./obj/PAU_comm.o
LOG___AID_idx       0x10              ./obj/protocol.o
comm_init           0x630             ./obj/comm_lib.o
Reg_DPD_flag        0x44              ./obj/main.o
udp_pop_fd          0x2c              ./obj/udp_comm.o
Is_RU_Time_Sync     0x1               ./obj/alarm.o
Reg_DPD2__Cnt       0x4               ./obj/main.o
m_Stat              0xd48             ./obj/rems.o
m_THRESH_Ctrl       0x94              ./obj/PAU_comm.o
AAU_T_Pattern_100q_x_gain
                    0x1000            ./obj/FPGA_Reg.o
Reg_DSP_Common_MIMO__Cnt
                    0x10              ./obj/main.o
m_Ro                0x1               ./obj/main.o
Reg_DSP_Common_MIMO_Addr
                    0x90              ./obj/main.o
m_Reg_Flg           0x125c            ./obj/FPGA_Reg.o
Jig_Data            0x1a              ./obj/comm.o
m_DTU_AutoDn        0x20              ./obj/dtu_udp_comm.o
Send_CnM_SW_Noti_time
                    0x8               ./obj/auto_cofig_proc.o
sR                  0x4000            ./obj/main.o
m_dn_data           0x3fc             ./obj/dtu_udp_comm.o
pReg_Common_Addr    0x33c             ./obj/main.o
inv_r               0x20              ./obj/inventory.o
m_Env               0x41f             ./obj/main.o
m_AutoDn_Psu        0x40c             ./obj/psu_comm.o
pReg_CFR_Addr       0x90              ./obj/main.o
br_FFT              0x4000            ./obj/main.o
Reg_AXI_CPRI_Cnt    0x10              ./obj/main.o
pReg_DSP_FA_MIMO_Addr
                    0x1920            ./obj/main.o
m_ATT_AMP_tbl       0x218             ./obj/main.o
Reg_DSP_Common_flag
                    0x35              ./obj/main.o
Rvs_Cnt_Off         0x4               ./obj/PAU_comm.o
pReg_TDD_Addr       0x18c             ./obj/main.o
AC_Fail_TEST_PAU0_RST_PIN_Toggle_Count
                    0x1               ./obj/alarm.o
AMP_Stby_Bk_AMP_St  0x4               ./obj/algorithm_rf.o
m_pwr_tbl           0x1d8             ./obj/main.o
Reg_Common_Addr     0x114             ./obj/main.o
code_image_idx      0x1               ./obj/down_load.o
pReg_DSP_Common_Addr
                    0x27c             ./obj/main.o
Auto_Rep_Pkt_Seq    0x2               ./obj/nms_alarm.o
pReg_DSP_Common_MIMO_Addr
                    0x1b0             ./obj/main.o
Reg_ALC_flag        0x10              ./obj/main.o
Reg_CFR__Cnt        0x10              ./obj/main.o
aid_user_ctrl       0x1               ./obj/control.o
AMP_Stby_Ctrl_Val   0x4               ./obj/PAU_comm.o
CPRI_Mscl_Val       0x8               ./obj/FPGA_Reg.o
Rvs_Amp_Off_rsn     0x4               ./obj/PAU_comm.o
m_AutoDn            0x1034            ./obj/PAU_comm.o
m_PSU               0x5e              ./obj/psu_comm.o
Reg_AXI_CPRI_flag   0x14              ./obj/main.o
AAU_T_Pattern_100i_x_gain
                    0x1000            ./obj/FPGA_Reg.o
g_Timer             0xc0              ./obj/algorithm_rf.o
Reg_AXI_CPRI_Addr   0x50              ./obj/main.o
msg_id              0x14              ./obj/frame.o
alarm_rpt_pause_req_Type
                    0x1               ./obj/nms_alarm.o
m_Task_Info         0x438             ./obj/protocol.o
AAU_T_Pattern_Alpha_i_x_gain
                    0x1000            ./obj/FPGA_Reg.o
Reg_TDD_flag        0x21              ./obj/main.o
Reg_RFU_CTRL__Cnt   0x10              ./obj/main.o
pReg_TDD2_Addr      0x3a8             ./obj/main.o
Reg_Common_MIMO_flag
                    0x84              ./obj/main.o
m_Eep               0xd10             ./obj/main.o
GUI_ST_AID_num      0x2               ./obj/protocol.o
Reg_COMP_ONOFF_Addr
                    0x10              ./obj/main.o
info_AMP            0x20              ./obj/down_load.o
m_REMS_Env          0x3               ./obj/rems.o
Reg_VSS_UL__Cnt     0x10              ./obj/main.o
m_AutoRpt_Info      0x1c              ./obj/udp_comm.o
PSU_Link_Fail_Co    0x1               ./obj/psu_comm.o
Reg_DPD2_Addr       0x18              ./obj/main.o
PAU_Link_Fail_Co    0x4               ./obj/PAU_comm.o
Ctrl_Sem            0x18              ./obj/control.o
Tot_AID_Num         0x2               ./obj/protocol.o
comm_que            0xbb18c           ./obj/comm_lib.o
wn_FFT              0x6000            ./obj/main.o
Mimo_Stdby_Mode_St  0x1               ./obj/algorithm_rf.o
m_fw_update         0x10              ./obj/comm.o
AMP_Stby_Bk_RVS_AMP_St
                    0x4               ./obj/algorithm_rf.o
CFG__C_AID_num      0x2               ./obj/protocol.o
SIM_Auto_ID_Set_Req
                    0x1               ./obj/SIM.o
Send_Ip_Assign_Noti_time
                    0x8               ./obj/auto_cofig_proc.o
Reg_DSP_Common_MIMO_flag
                    0x24              ./obj/main.o
Alarm_JIG_Timer     0x8               ./obj/alarm.o
m_FPGA_AutoDn       0x20              ./obj/dtu_udp_comm.o
BlueT_Terminal      0x1               ./obj/alarm.o
AC_Fail_Timer_ms    0x8               ./obj/algorithm_rf.o
ftp_DN_file         0x40              ./obj/down_load.o
m_LSH_Sts           0x440             ./obj/lsh_udp_comm.o
Fwd_Amp_SD          0x4               ./obj/PAU_comm.o
m_Alm_Rpt_Info      0x1c              ./obj/udp_comm.o
CFG__C_AID_idx      0x400             ./obj/protocol.o
Reg_DPD__Cnt        0x10              ./obj/main.o
comm_info           0x4d              ./obj/comm.o
m_Req               0x8               ./obj/main.o
udp_rx_que          0x2ec688          ./obj/comm_lib.o
udp_port            0x16              ./obj/comm_conf.o
Reg_TDD2_flag       0x4e              ./obj/main.o
rcu_reset_req       0x1               ./obj/alarm.o
UDP_Rx_Evt          0x108             ./obj/comm_lib.o
E_AUTO_CONFIG_STEP  0x4               ./obj/main.o
init                0x4               ./obj/PAU_comm.o
Hidden_AID_num      0x2               ./obj/protocol.o
pReg_VSS_DL_Addr    0x1350            ./obj/main.o
m_AMP_tmp_tbl       0xf0              ./obj/main.o
info_Rcu            0x8               ./obj/down_load.o
AC_Extension_St     0x1               ./obj/algorithm_rf.o
Local_Terminal      0x1               ./obj/alarm.o
Pau_Init_End        0x4               ./obj/PAU_comm.o
Reg_TDD2_Addr       0x138             ./obj/main.o
Reg_DPD_Addr        0x110             ./obj/main.o
Reg_VSS_DL__Cnt     0x10              ./obj/main.o
spectrum_timer      0x8               ./obj/main.o
inv                 0x20              ./obj/inventory.o
Reg_VSS_UL_Addr     0x670             ./obj/main.o
PSU_Info            0x23              ./obj/psu_comm.o
m_rst_info          0x30              ./obj/main.o
CFG_nC_AID_num      0x2               ./obj/protocol.o
pReg_DPD2_Addr      0x48              ./obj/main.o
Mimo_Stby_Ctrl_Req  0x4               ./obj/algorithm_rf.o
Reg_VSS_UL_flag     0x19c             ./obj/main.o
hi_pwr_alarm        0x4               ./obj/PAU_comm.o
ftp_txf             0x210             ./obj/down_load.o
zip_file_name       0x20              ./obj/down_load.o
ARM_REP_PKT_Ro      0x3f4             ./obj/nms_alarm.o
RHU_Inventory       0xd2              ./obj/protocol.o
Meas___AID_idx      0x400             ./obj/protocol.o
pReg_Common_MIMO_Addr
                    0x630             ./obj/main.o
Meas___AID_num      0x2               ./obj/protocol.o
Test_timer          0x8               ./obj/FPGA_Reg.o
E_IP_ASSIGN_STEP    0x4               ./obj/main.o
E_INIT_NOTI_STEP    0x4               ./obj/main.o
Reg_Common_MIMO_Addr
                    0x210             ./obj/main.o
PSU_Init_End        0x1               ./obj/psu_comm.o
Local_Terminal_time
                    0x8               ./obj/alarm.o
m_Reg_Ctl           0x125c            ./obj/FPGA_Reg.o
m_ping_test         0x108             ./obj/util.o
User_Ctrl_Req       0x1               ./obj/control.o
AC_Fail_Ctrl_Req    0x4               ./obj/algorithm_rf.o
Reg_DSP_FA_Common_flag
                    0x8               ./obj/main.o
pReg_DSP_FA_Common_Addr
                    0x60              ./obj/main.o
sI                  0x4000            ./obj/main.o
Reg_VSS_DL_Addr     0x670             ./obj/main.o
m_NetFile           0x13              ./obj/util.o
Reg_DSP_FA_Common_Addr
                    0x20              ./obj/main.o
RF_Att_Accuracy_x4  0x8               ./obj/FPGA_Reg.o
Mimo_Stby_Ctrl_Val  0x4               ./obj/algorithm_rf.o
Reg_DSP_Common__Cnt
                    0x4               ./obj/main.o
pReg_RFU_CTRL_Addr  0xc0              ./obj/main.o
gRemsRspPkt_1k_Spectrum
                    0x2828            ./obj/rems.o
StdBy_Off_rsn       0x4               ./obj/PAU_comm.o
m_Sim               0xa1              ./obj/SIM.o
pReg_COMP_ONOFF_Addr
                    0x30              ./obj/main.o
Reg_Ready_Flag      0x1               ./obj/FPGA_Reg.o
Reg_COMP_ONOFF_Cnt  0x10              ./obj/main.o
Reg_Common_MIMO__Cnt
                    0x10              ./obj/main.o
BT_mode_timer       0x8               ./obj/BT_Comm.o
AMP_Stby_Off_Req    0x4               ./obj/PAU_comm.o
Reg_COMP_ONOFF_flag
                    0x4               ./obj/main.o
dn_version          0x2               ./obj/down_load.o
Reg_DPD2_flag       0x6               ./obj/main.o
CPRI_Lock_Val       0x4               ./obj/FPGA_Reg.o
BT_Re_Init_Timer    0x8               ./obj/alarm.o
AMP_Stdby_Mode_St_Sum
                    0x1               ./obj/algorithm_rf.o
Fwd_Cnt_Off         0x4               ./obj/PAU_comm.o
Reg_Common__Cnt     0x4               ./obj/main.o
gRemsRspPkt_1k      0x2828            ./obj/rems.o
f_DTU_Path_OnOff    0x10              ./obj/FPGA_Reg.o
m_ModVer            0x24              ./obj/down_load.o
LOG___AID_num       0x2               ./obj/protocol.o
pre_DN_file_header  0x40              ./obj/down_load.o
PAU_Info            0x80              ./obj/PAU_comm.o
Test_timer_Vss      0x8               ./obj/FPGA_Reg.o
cpri_alm_remain_time
                    0x8               ./obj/FPGA_Reg.o
CFG_nC_AID_idx      0x400             ./obj/protocol.o
Reg_DSP_Common_Addr
                    0xd4              ./obj/main.o
NMS_Alarm_Timer     0x8               ./obj/nms_alarm.o
info_Dtu            0x8               ./obj/down_load.o
DTU_Reg_Link_Fail   0x1               ./obj/FPGA_Reg.o
Mimo_Stby_Bk_AMP_St
                    0x4               ./obj/algorithm_rf.o
Auto_Rep_Pkt        0xc6d4            ./obj/nms_alarm.o
ftp_dn_time         0x4               ./obj/down_load.o
pReg_DPD_Addr       0x330             ./obj/main.o
Reg_RFU_CTRL_flag   0x10              ./obj/main.o
udp_push_fd         0x2c              ./obj/udp_comm.o
Reg_DSP_FA_MIMO__Cnt
                    0x20              ./obj/main.o
m_Dtu_Reg           0xc               ./obj/FPGA_Reg.o
gRemsRspPkt_1k_CFnC
                    0x2828            ./obj/rems.o
Reg_DSP_FA_MIMO_flag
                    0x218             ./obj/main.o
AMP_PROC_Start_Timer_ms
                    0x8               ./obj/algorithm_rf.o
Max_Task_Cnt        0x4               ./obj/protocol.o
SIM_task_req_timer  0x8               ./obj/SIM.o
pReg_ALC_Addr       0xc0              ./obj/main.o
Fwd_Amp_Off_rsn     0x4               ./obj/PAU_comm.o
PSU_Comm_Cnt        0x1               ./obj/psu_comm.o
gRemsRspPkt_1k_Mea  0x2828            ./obj/rems.o
RHU_Inventory_Prev  0xd2              ./obj/protocol.o
Auto_Wr__Log_Seq    0x2               ./obj/nms_alarm.o
Reg_ALC_Addr        0x40              ./obj/main.o
Send_Init_Noti_time
                    0x8               ./obj/auto_cofig_proc.o
sw_side             0x1               ./obj/down_load.o
Reg_CFR_flag        0xc               ./obj/main.o
comm_tx_buff        0x5d884           ./obj/comm_lib.o
NMS_Alarm_En        0x1               ./obj/nms_alarm.o
cpri_alm_disp_time  0x8               ./obj/FPGA_Reg.o
AC_Fail_Bk_ATT_x2   0x4               ./obj/algorithm_rf.o
Tx_Wait_Evt         0x108             ./obj/comm_lib.o
Reg_DSP_FA_Common__Cnt
                    0x8               ./obj/main.o
dn_wait             0x18              ./obj/down_load.o
Reg_Common_flag     0x45              ./obj/main.o

Discarded input sections

 .note.GNU-stack
                0x0000000000000000        0x0 /opt/poky/2.2.1/sysroots/cortexa8hf-neon-poky-linux-gnueabi/usr/lib/crt1.o
 .note.GNU-stack
                0x0000000000000000        0x0 /opt/poky/2.2.1/sysroots/cortexa8hf-neon-poky-linux-gnueabi/usr/lib/crti.o
 .note.GNU-stack
                0x0000000000000000        0x0 /opt/poky/2.2.1/sysroots/cortexa8hf-neon-poky-linux-gnueabi/usr/lib/arm-poky-linux-gnueabi/6.2.0/crtbegin.o
 .note.GNU-stack
                0x0000000000000000        0x0 ./obj/main.o
 .note.GNU-stack
                0x0000000000000000        0x0 ./obj/cli.o
 .note.GNU-stack
                0x0000000000000000        0x0 ./obj/up_com.o
 .note.GNU-stack
                0x0000000000000000        0x0 ./obj/comm.o
 .note.GNU-stack
                0x0000000000000000        0x0 ./obj/comm_conf.o
 .note.GNU-stack
                0x0000000000000000        0x0 ./obj/comm_lib.o
 .note.GNU-stack
                0x0000000000000000        0x0 ./obj/Debug_Lib.o
 .note.GNU-stack
                0x0000000000000000        0x0 ./obj/frame.o
 .note.GNU-stack
                0x0000000000000000        0x0 ./obj/crc.o
 .note.GNU-stack
                0x0000000000000000        0x0 ./obj/util.o
 .note.GNU-stack
                0x0000000000000000        0x0 ./obj/os_util.o
 .note.GNU-stack
                0x0000000000000000        0x0 ./obj/devicelib.o
 .note.GNU-stack
                0x0000000000000000        0x0 ./obj/BT_Comm.o
 .note.GNU-stack
                0x0000000000000000        0x0 ./obj/down_load.o
 .note.GNU-stack
                0x0000000000000000        0x0 ./obj/eep_emul.o
 .note.GNU-stack
                0x0000000000000000        0x0 ./obj/udp_comm.o
 .note.GNU-stack
                0x0000000000000000        0x0 ./obj/lo_host_comm.o
 .note.GNU-stack
                0x0000000000000000        0x0 ./obj/lsh_udp_comm.o
 .note.GNU-stack
                0x0000000000000000        0x0 ./obj/auto_cofig_proc.o
 .note.GNU-stack
                0x0000000000000000        0x0 ./obj/a_pru_mmap_proc.o
 .note.GNU-stack
                0x0000000000000000        0x0 ./obj/PAU_comm.o
 .note.GNU-stack
                0x0000000000000000        0x0 ./obj/psu_comm.o
 .note.GNU-stack
                0x0000000000000000        0x0 ./obj/alarm.o
 .note.GNU-stack
                0x0000000000000000        0x0 ./obj/algorithm_rf.o
 .note.GNU-stack
                0x0000000000000000        0x0 ./obj/protocol.o
 .note.GNU-stack
                0x0000000000000000        0x0 ./obj/control.o
 .note.GNU-stack
                0x0000000000000000        0x0 ./obj/spi.o
 .note.GNU-stack
                0x0000000000000000        0x0 ./obj/FPGA_Reg.o
 .note.GNU-stack
                0x0000000000000000        0x0 ./obj/temp_ic.o
 .note.GNU-stack
                0x0000000000000000        0x0 ./obj/dtu_udp_comm.o
 .note.GNU-stack
                0x0000000000000000        0x0 ./obj/inventory.o
 .note.GNU-stack
                0x0000000000000000        0x0 ./obj/nms_alarm.o
 .note.GNU-stack
                0x0000000000000000        0x0 ./obj/log_file.o
 .note.GNU-stack
                0x0000000000000000        0x0 ./obj/i2c_dev.o
 .note.GNU-stack
                0x0000000000000000        0x0 ./obj/log_reset.o
 .note.GNU-stack
                0x0000000000000000        0x0 ./obj/log_event.o
 .note.GNU-stack
                0x0000000000000000        0x0 ./obj/SIM.o
 .note.GNU-stack
                0x0000000000000000        0x0 ./obj/ADC_ic.o
 .note.GNU-stack
                0x0000000000000000        0x0 ./obj/uda_proc.o
 .note.GNU-stack
                0x0000000000000000        0x0 ./obj/pru_dpd.o
 .note.GNU-stack
                0x0000000000000000        0x0 ./obj/rems.o
 .note.GNU-stack
                0x0000000000000000        0x0 ./obj/spectrum.o
 .note.GNU-stack
                0x0000000000000000        0x0 /opt/poky/2.2.1/sysroots/cortexa8hf-neon-poky-linux-gnueabi/usr/lib/arm-poky-linux-gnueabi/6.2.0/libgcc.a(_udivsi3.o)
 .note.GNU-stack
                0x0000000000000000        0x0 /opt/poky/2.2.1/sysroots/cortexa8hf-neon-poky-linux-gnueabi/usr/lib/arm-poky-linux-gnueabi/6.2.0/libgcc.a(_divsi3.o)
 .note.GNU-stack
                0x0000000000000000        0x0 /opt/poky/2.2.1/sysroots/cortexa8hf-neon-poky-linux-gnueabi/usr/lib/arm-poky-linux-gnueabi/6.2.0/libgcc.a(_aeabi_ldivmod.o)
 .note.GNU-stack
                0x0000000000000000        0x0 /opt/poky/2.2.1/sysroots/cortexa8hf-neon-poky-linux-gnueabi/usr/lib/arm-poky-linux-gnueabi/6.2.0/libgcc.a(_dvmd_lnx.o)
 .note.GNU-stack
                0x0000000000000000        0x0 /opt/poky/2.2.1/sysroots/cortexa8hf-neon-poky-linux-gnueabi/usr/lib/arm-poky-linux-gnueabi/6.2.0/libgcc.a(_udivmoddi4.o)
 .note.GNU-stack
                0x0000000000000000        0x0 /opt/poky/2.2.1/sysroots/cortexa8hf-neon-poky-linux-gnueabi/usr/lib/libc_nonshared.a(elf-init.oS)
 .note.GNU-stack
                0x0000000000000000        0x0 /opt/poky/2.2.1/sysroots/cortexa8hf-neon-poky-linux-gnueabi/usr/lib/arm-poky-linux-gnueabi/6.2.0/crtend.o
 .note.GNU-stack
                0x0000000000000000        0x0 /opt/poky/2.2.1/sysroots/cortexa8hf-neon-poky-linux-gnueabi/usr/lib/crtn.o

Memory Configuration

Name             Origin             Length             Attributes
*default*        0x0000000000000000 0xffffffffffffffff

Linker script and memory map

LOAD /opt/poky/2.2.1/sysroots/cortexa8hf-neon-poky-linux-gnueabi/usr/lib/crt1.o
LOAD /opt/poky/2.2.1/sysroots/cortexa8hf-neon-poky-linux-gnueabi/usr/lib/crti.o
LOAD /opt/poky/2.2.1/sysroots/cortexa8hf-neon-poky-linux-gnueabi/usr/lib/arm-poky-linux-gnueabi/6.2.0/crtbegin.o
LOAD ./obj/main.o
LOAD ./obj/cli.o
LOAD ./obj/up_com.o
LOAD ./obj/comm.o
LOAD ./obj/comm_conf.o
LOAD ./obj/comm_lib.o
LOAD ./obj/Debug_Lib.o
LOAD ./obj/frame.o
LOAD ./obj/crc.o
LOAD ./obj/util.o
LOAD ./obj/os_util.o
LOAD ./obj/devicelib.o
LOAD ./obj/BT_Comm.o
LOAD ./obj/down_load.o
LOAD ./obj/eep_emul.o
LOAD ./obj/udp_comm.o
LOAD ./obj/lo_host_comm.o
LOAD ./obj/lsh_udp_comm.o
LOAD ./obj/auto_cofig_proc.o
LOAD ./obj/a_pru_mmap_proc.o
LOAD ./obj/PAU_comm.o
LOAD ./obj/psu_comm.o
LOAD ./obj/alarm.o
LOAD ./obj/algorithm_rf.o
LOAD ./obj/protocol.o
LOAD ./obj/control.o
LOAD ./obj/spi.o
LOAD ./obj/FPGA_Reg.o
LOAD ./obj/temp_ic.o
LOAD ./obj/dtu_udp_comm.o
LOAD ./obj/inventory.o
LOAD ./obj/nms_alarm.o
LOAD ./obj/log_file.o
LOAD ./obj/i2c_dev.o
LOAD ./obj/log_reset.o
LOAD ./obj/log_event.o
LOAD ./obj/SIM.o
LOAD ./obj/ADC_ic.o
LOAD ./obj/uda_proc.o
LOAD ./obj/pru_dpd.o
LOAD ./obj/rems.o
LOAD ./obj/spectrum.o
LOAD /opt/poky/2.2.1/sysroots/cortexa8hf-neon-poky-linux-gnueabi/usr/lib/libpthread.so
START GROUP
LOAD /opt/poky/2.2.1/sysroots/cortexa8hf-neon-poky-linux-gnueabi/lib/libpthread.so.0
LOAD /opt/poky/2.2.1/sysroots/cortexa8hf-neon-poky-linux-gnueabi/usr/lib/libpthread_nonshared.a
END GROUP
LOAD /opt/poky/2.2.1/sysroots/cortexa8hf-neon-poky-linux-gnueabi/usr/lib/libm.so
LOAD /opt/poky/2.2.1/sysroots/cortexa8hf-neon-poky-linux-gnueabi/usr/lib/arm-poky-linux-gnueabi/6.2.0/libgcc.a
LOAD /opt/poky/2.2.1/sysroots/cortexa8hf-neon-poky-linux-gnueabi/lib/libgcc_s.so
START GROUP
LOAD /opt/poky/2.2.1/sysroots/cortexa8hf-neon-poky-linux-gnueabi/lib/libgcc_s.so.1
LOAD /opt/poky/2.2.1/sysroots/cortexa8hf-neon-poky-linux-gnueabi/usr/lib/arm-poky-linux-gnueabi/6.2.0/libgcc.a
END GROUP
LOAD /opt/poky/2.2.1/sysroots/cortexa8hf-neon-poky-linux-gnueabi/usr/lib/libc.so
START GROUP
LOAD /opt/poky/2.2.1/sysroots/cortexa8hf-neon-poky-linux-gnueabi/lib/libc.so.6
LOAD /opt/poky/2.2.1/sysroots/cortexa8hf-neon-poky-linux-gnueabi/usr/lib/libc_nonshared.a
LOAD /opt/poky/2.2.1/sysroots/cortexa8hf-neon-poky-linux-gnueabi/lib/ld-linux-armhf.so.3
END GROUP
LOAD /opt/poky/2.2.1/sysroots/cortexa8hf-neon-poky-linux-gnueabi/usr/lib/arm-poky-linux-gnueabi/6.2.0/libgcc.a
LOAD /opt/poky/2.2.1/sysroots/cortexa8hf-neon-poky-linux-gnueabi/lib/libgcc_s.so
START GROUP
LOAD /opt/poky/2.2.1/sysroots/cortexa8hf-neon-poky-linux-gnueabi/lib/libgcc_s.so.1
LOAD /opt/poky/2.2.1/sysroots/cortexa8hf-neon-poky-linux-gnueabi/usr/lib/arm-poky-linux-gnueabi/6.2.0/libgcc.a
END GROUP
LOAD /opt/poky/2.2.1/sysroots/cortexa8hf-neon-poky-linux-gnueabi/usr/lib/arm-poky-linux-gnueabi/6.2.0/crtend.o
LOAD /opt/poky/2.2.1/sysroots/cortexa8hf-neon-poky-linux-gnueabi/usr/lib/crtn.o
                [!provide]                        PROVIDE (__executable_start, 0x10000)
                0x0000000000010134                . = (0x10000 + SIZEOF_HEADERS)

.interp         0x0000000000010134       0x19
 *(.interp)
 .interp        0x0000000000010134       0x19 /opt/poky/2.2.1/sysroots/cortexa8hf-neon-poky-linux-gnueabi/usr/lib/crt1.o

.note.ABI-tag   0x0000000000010150       0x20
 .note.ABI-tag  0x0000000000010150       0x20 /opt/poky/2.2.1/sysroots/cortexa8hf-neon-poky-linux-gnueabi/usr/lib/crt1.o

.note.gnu.build-id
                0x0000000000010170       0x24
 *(.note.gnu.build-id)
 .note.gnu.build-id
                0x0000000000010170       0x24 linker stubs

.hash
 *(.hash)

.gnu.hash       0x0000000000010194      0x414
 *(.gnu.hash)
 .gnu.hash      0x0000000000010194      0x414 /opt/poky/2.2.1/sysroots/cortexa8hf-neon-poky-linux-gnueabi/usr/lib/crt1.o

.dynsym         0x00000000000105a8      0x850
 *(.dynsym)
 .dynsym        0x00000000000105a8      0x850 /opt/poky/2.2.1/sysroots/cortexa8hf-neon-poky-linux-gnueabi/usr/lib/crt1.o

.dynstr         0x0000000000010df8      0x470
 *(.dynstr)
 .dynstr        0x0000000000010df8      0x470 /opt/poky/2.2.1/sysroots/cortexa8hf-neon-poky-linux-gnueabi/usr/lib/crt1.o

.gnu.version    0x0000000000011268      0x10a
 *(.gnu.version)
 .gnu.version   0x0000000000011268      0x10a /opt/poky/2.2.1/sysroots/cortexa8hf-neon-poky-linux-gnueabi/usr/lib/crt1.o

.gnu.version_d  0x0000000000011374        0x0
 *(.gnu.version_d)
 .gnu.version_d
                0x0000000000011374        0x0 /opt/poky/2.2.1/sysroots/cortexa8hf-neon-poky-linux-gnueabi/usr/lib/crt1.o

.gnu.version_r  0x0000000000011374       0x90
 *(.gnu.version_r)
 .gnu.version_r
                0x0000000000011374       0x90 /opt/poky/2.2.1/sysroots/cortexa8hf-neon-poky-linux-gnueabi/usr/lib/crt1.o

.rel.dyn        0x0000000000011404       0x38
 *(.rel.init)
 *(.rel.text .rel.text.* .rel.gnu.linkonce.t.*)
 *(.rel.fini)
 *(.rel.rodata .rel.rodata.* .rel.gnu.linkonce.r.*)
 *(.rel.data.rel.ro .rel.data.rel.ro.* .rel.gnu.linkonce.d.rel.ro.*)
 *(.rel.data .rel.data.* .rel.gnu.linkonce.d.*)
 *(.rel.tdata .rel.tdata.* .rel.gnu.linkonce.td.*)
 *(.rel.tbss .rel.tbss.* .rel.gnu.linkonce.tb.*)
 *(.rel.ctors)
 *(.rel.dtors)
 *(.rel.got)
 .rel.got       0x0000000000011404        0x8 /opt/poky/2.2.1/sysroots/cortexa8hf-neon-poky-linux-gnueabi/usr/lib/crt1.o
 *(.rel.bss .rel.bss.* .rel.gnu.linkonce.b.*)
 .rel.bss       0x000000000001140c       0x30 /opt/poky/2.2.1/sysroots/cortexa8hf-neon-poky-linux-gnueabi/usr/lib/crt1.o
                [!provide]                        PROVIDE (__rel_iplt_start, .)
 *(.rel.iplt)
 .rel.iplt      0x000000000001143c        0x0 /opt/poky/2.2.1/sysroots/cortexa8hf-neon-poky-linux-gnueabi/usr/lib/crt1.o
                [!provide]                        PROVIDE (__rel_iplt_end, .)

.rela.dyn       0x000000000001143c        0x0
 *(.rela.init)
 *(.rela.text .rela.text.* .rela.gnu.linkonce.t.*)
 *(.rela.fini)
 *(.rela.rodata .rela.rodata.* .rela.gnu.linkonce.r.*)
 *(.rela.data .rela.data.* .rela.gnu.linkonce.d.*)
 *(.rela.tdata .rela.tdata.* .rela.gnu.linkonce.td.*)
 *(.rela.tbss .rela.tbss.* .rela.gnu.linkonce.tb.*)
 *(.rela.ctors)
 *(.rela.dtors)
 *(.rela.got)
 *(.rela.bss .rela.bss.* .rela.gnu.linkonce.b.*)
                [!provide]                        PROVIDE (__rela_iplt_start, .)
 *(.rela.iplt)
                [!provide]                        PROVIDE (__rela_iplt_end, .)

.rel.plt        0x000000000001143c      0x3d8
 *(.rel.plt)
 .rel.plt       0x000000000001143c      0x3d8 /opt/poky/2.2.1/sysroots/cortexa8hf-neon-poky-linux-gnueabi/usr/lib/crt1.o

.rela.plt
 *(.rela.plt)

.init           0x0000000000011814        0xc
 *(SORT(.init))
 .init          0x0000000000011814        0x8 /opt/poky/2.2.1/sysroots/cortexa8hf-neon-poky-linux-gnueabi/usr/lib/crti.o
                0x0000000000011814                _init
 .init          0x000000000001181c        0x4 /opt/poky/2.2.1/sysroots/cortexa8hf-neon-poky-linux-gnueabi/usr/lib/crtn.o

.plt            0x0000000000011820      0x5d8
 *(.plt)
 .plt           0x0000000000011820      0x5d8 /opt/poky/2.2.1/sysroots/cortexa8hf-neon-poky-linux-gnueabi/usr/lib/crt1.o
                0x0000000000011834                pthread_mutex_unlock@@GLIBC_2.4
                0x0000000000011840                calloc@@GLIBC_2.4
                0x000000000001184c                strstr@@GLIBC_2.4
                0x0000000000011858                raise@@GLIBC_2.4
                0x0000000000011864                setbuf@@GLIBC_2.4
                0x0000000000011870                strcmp@@GLIBC_2.4
                0x000000000001187c                strtol@@GLIBC_2.4
                0x0000000000011888                printf@@GLIBC_2.4
                0x0000000000011894                truncate@@GLIBC_2.4
                0x00000000000118a0                __isoc99_fscanf@@GLIBC_2.7
                0x00000000000118ac                fopen@@GLIBC_2.4
                0x00000000000118b8                read@@GLIBC_2.4
                0x00000000000118c4                tcflush@@GLIBC_2.4
                0x00000000000118d0                mktime@@GLIBC_2.4
                0x00000000000118dc                fflush@@GLIBC_2.4
                0x00000000000118e8                free@@GLIBC_2.4
                0x00000000000118f4                fgets@@GLIBC_2.4
                0x0000000000011900                pthread_mutex_lock@@GLIBC_2.4
                0x000000000001190c                clock_gettime@@GLIBC_2.17
                0x0000000000011918                memcpy@@GLIBC_2.4
                0x0000000000011924                pthread_mutex_init@@GLIBC_2.4
                0x0000000000011930                signal@@GLIBC_2.4
                0x000000000001193c                time@@GLIBC_2.4
                0x0000000000011948                lseek@@GLIBC_2.4
                0x0000000000011954                pow@@GLIBC_2.4
                0x0000000000011960                _IO_getc@@GLIBC_2.4
                0x000000000001196c                ftell@@GLIBC_2.4
                0x0000000000011978                memcmp@@GLIBC_2.4
                0x0000000000011984                inet_ntoa@@GLIBC_2.4
                0x0000000000011990                select@@GLIBC_2.4
                0x000000000001199c                sincos@@GLIBC_2.4
                0x00000000000119a8                sleep@@GLIBC_2.4
                0x00000000000119b4                stpcpy@@GLIBC_2.4
                0x00000000000119c0                recvfrom@@GLIBC_2.4
                0x00000000000119cc                syncfs@@GLIBC_2.14
                0x00000000000119d8                perror@@GLIBC_2.4
                0x00000000000119e4                __xstat@@GLIBC_2.4
                0x00000000000119f0                _IO_putc@@GLIBC_2.4
                0x00000000000119fc                fwrite@@GLIBC_2.4
                0x0000000000011a08                strcat@@GLIBC_2.4
                0x0000000000011a14                ioctl@@GLIBC_2.4
                0x0000000000011a20                usleep@@GLIBC_2.4
                0x0000000000011a2c                tcsetattr@@GLIBC_2.4
                0x0000000000011a38                strcpy@@GLIBC_2.4
                0x0000000000011a44                gettimeofday@@GLIBC_2.4
                0x0000000000011a50                fread@@GLIBC_2.4
                0x0000000000011a5c                pthread_create@@GLIBC_2.4
                0x0000000000011a68                daemon@@GLIBC_2.4
                0x0000000000011a74                puts@@GLIBC_2.4
                0x0000000000011a80                sysinfo@@GLIBC_2.4
                0x0000000000011a8c                malloc@@GLIBC_2.4
                0x0000000000011a98                settimeofday@@GLIBC_2.4
                0x0000000000011aa4                log10@@GLIBC_2.4
                0x0000000000011ab0                __libc_start_main@@GLIBC_2.4
                0x0000000000011abc                strerror@@GLIBC_2.4
                0x0000000000011ac8                system@@GLIBC_2.4
                0x0000000000011ad4                __fxstat@@GLIBC_2.4
                0x0000000000011ae0                strftime@@GLIBC_2.4
                0x0000000000011aec                localtime@@GLIBC_2.4
                0x0000000000011af8                closelog@@GLIBC_2.4
                0x0000000000011b10                open@@GLIBC_2.4
                0x0000000000011b1c                rename@@GLIBC_2.4
                0x0000000000011b28                kill@@GLIBC_2.4
                0x0000000000011b34                __ctype_b_loc@@GLIBC_2.4
                0x0000000000011b40                getpid@@GLIBC_2.4
                0x0000000000011b4c                exit@@GLIBC_2.4
                0x0000000000011b58                strtoul@@GLIBC_2.4
                0x0000000000011b64                strlen@@GLIBC_2.4
                0x0000000000011b70                strchr@@GLIBC_2.4
                0x0000000000011b7c                fprintf@@GLIBC_2.4
                0x0000000000011b88                mkstemp@@GLIBC_2.4
                0x0000000000011b94                fcntl@@GLIBC_2.4
                0x0000000000011ba0                sqrt@@GLIBC_2.4
                0x0000000000011bac                __errno_location@@GLIBC_2.4
                0x0000000000011bb8                snprintf@@GLIBC_2.4
                0x0000000000011bc4                __isoc99_sscanf@@GLIBC_2.7
                0x0000000000011bd0                mkdir@@GLIBC_2.4
                0x0000000000011bdc                bind@@GLIBC_2.4
                0x0000000000011be8                memset@@GLIBC_2.4
                0x0000000000011bf4                putchar@@GLIBC_2.4
                0x0000000000011c00                scandir@@GLIBC_2.4
                0x0000000000011c0c                strncpy@@GLIBC_2.4
                0x0000000000011c18                __xpg_basename@@GLIBC_2.4
                0x0000000000011c24                gmtime@@GLIBC_2.4
                0x0000000000011c30                write@@GLIBC_2.4
                0x0000000000011c3c                fileno@@GLIBC_2.4
                0x0000000000011c48                difftime@@GLIBC_2.4
                0x0000000000011c54                ftruncate@@GLIBC_2.4
                0x0000000000011c60                fclose@@GLIBC_2.4
                0x0000000000011c6c                pthread_exit@@GLIBC_2.4
                0x0000000000011c78                strnlen@@GLIBC_2.4
                0x0000000000011c84                pipe@@GLIBC_2.4
                0x0000000000011c90                strtok@@GLIBC_2.4
                0x0000000000011c9c                sendto@@GLIBC_2.4
                0x0000000000011ca8                popen@@GLIBC_2.4
                0x0000000000011cb4                stime@@GLIBC_2.4
                0x0000000000011cc0                vfprintf@@GLIBC_2.4
                0x0000000000011ccc                fputc@@GLIBC_2.4
                0x0000000000011cd8                syslog@@GLIBC_2.4
                0x0000000000011ce4                alphasort@@GLIBC_2.4
                0x0000000000011cf0                sprintf@@GLIBC_2.4
                0x0000000000011cfc                timegm@@GLIBC_2.4
                0x0000000000011d08                roundf@@GLIBC_2.4
                0x0000000000011d14                openlog@@GLIBC_2.4
                0x0000000000011d20                remove@@GLIBC_2.4
                0x0000000000011d2c                vsnprintf@@GLIBC_2.4
                0x0000000000011d38                socket@@GLIBC_2.4
                0x0000000000011d44                inet_addr@@GLIBC_2.4
                0x0000000000011d50                sync@@GLIBC_2.4
                0x0000000000011d5c                umask@@GLIBC_2.4
                0x0000000000011d68                strncat@@GLIBC_2.4
                0x0000000000011d74                strncmp@@GLIBC_2.4
                0x0000000000011d80                abort@@GLIBC_2.4
                0x0000000000011d8c                recv@@GLIBC_2.4
                0x0000000000011d98                close@@GLIBC_2.4
                0x0000000000011da4                mkfifo@@GLIBC_2.4
                0x0000000000011db0                send@@GLIBC_2.4
                0x0000000000011dbc                connect@@GLIBC_2.4
                0x0000000000011dc8                sched_setscheduler@@GLIBC_2.4
                0x0000000000011dd4                cos@@GLIBC_2.4
                0x0000000000011de0                tcgetattr@@GLIBC_2.4
                0x0000000000011dec                pclose@@GLIBC_2.4

.iplt           0x0000000000011df8        0x0
 *(.iplt)
 .iplt          0x0000000000011df8        0x0 /opt/poky/2.2.1/sysroots/cortexa8hf-neon-poky-linux-gnueabi/usr/lib/crt1.o

.text           0x0000000000011df8    0x5811c
 *(.text.unlikely .text.*_unlikely .text.unlikely.*)
 *(.text.exit .text.exit.*)
 *(.text.startup .text.startup.*)
 .text.startup  0x0000000000011df8      0x4e4 ./obj/main.o
                0x0000000000011df8                main
 *(.text.hot .text.hot.*)
 *(.text .stub .text.* .gnu.linkonce.t.*)
 .text          0x00000000000122dc       0x3c /opt/poky/2.2.1/sysroots/cortexa8hf-neon-poky-linux-gnueabi/usr/lib/crt1.o
                0x00000000000122dc                _start
 .text          0x0000000000012318       0x24 /opt/poky/2.2.1/sysroots/cortexa8hf-neon-poky-linux-gnueabi/usr/lib/crti.o
 .text          0x000000000001233c       0xc8 /opt/poky/2.2.1/sysroots/cortexa8hf-neon-poky-linux-gnueabi/usr/lib/arm-poky-linux-gnueabi/6.2.0/crtbegin.o
 .text          0x0000000000012404      0x6f8 ./obj/main.o
                0x0000000000012404                WDT_Task
                0x0000000000012648                StatusSem_Init
                0x000000000001267c                Status_Lock
                0x0000000000012688                Status_Unlock
                0x0000000000012694                Free_MemAlloc
                0x0000000000012698                End_task
                0x000000000001282c                Init_GPIO_ANTS
                0x0000000000012898                DeInit_GPIO_ANTS
                0x00000000000128c8                End_Program
                0x0000000000012920                Chk_ResetReason
 .text          0x0000000000012afc      0x4ac ./obj/cli.o
                0x0000000000012c8c                hex_dump
                0x0000000000012ce8                _set_tty_for_erase_key
                0x0000000000012d38                CLI_Process
 .text          0x0000000000012fa8       0xd0 ./obj/up_com.o
                0x0000000000012fa8                UP_Comm_Task
 .text          0x0000000000013078     0x2634 ./obj/comm.o
                0x0000000000013078                Get__My_RU_ID
                0x0000000000013088                Get__gREMS_My_SUBID
                0x000000000001309c                SUB_ID_Check
                0x0000000000013108                Cal_Node_IP_Addr
                0x00000000000131b8                Init_GUI_IP_Table
                0x00000000000131e0                Insert_GUI_IP_Table
                0x000000000001327c                Find_GUI_IP
                0x0000000000013338                SendError
                0x000000000001337c                Make_JIg_Data
                0x00000000000133f0                IS__Download_Allowed
                0x00000000000133f8                Proc__Check_Download_Now
                0x00000000000133fc                DownLoadDataCheck
                0x00000000000134d0                Mod_Download
                0x0000000000013520                txStatus_REMS_Hidden
                0x0000000000013570                Register_inquire
                0x000000000001361c                Copy_POWER_Table
                0x00000000000136dc                Copy_AMP_TEMP_Table
                0x0000000000013728                Copy_ATT_Table
                0x0000000000013774                Get_TempAtt_Tbl
                0x0000000000013828                Get_TempAtt_Alpha_Tbl
                0x00000000000138dc                Get_MaxMin_Temp_TempAtt_Tbl
                0x0000000000013964                Table_PassData
                0x000000000001397c                Table_Write
                0x0000000000013adc                Table_Read
                0x0000000000013cd0                MaskSet
                0x0000000000013d44                Power_Reset_Ctrl
                0x0000000000013d9c                Get_LogStatus
                0x0000000000013dd4                tx_LogStatus
                0x0000000000013e54                tx_LogFile
                0x0000000000013f2c                tx_LogFileList
                0x0000000000014010                Is__Command_of_LogParser_GUI
                0x0000000000014024                PassAckData_ToGUI
                0x00000000000140c4                NodeDataAck
                0x00000000000141a4                Make_Alive_Data
                0x00000000000141cc                Get_Pkt_Idx
                0x00000000000141fc                Login_Info_Valid
                0x0000000000014248                GUI_ID_PW_Chk
                0x00000000000143d4                txStatus
                0x00000000000143ec                txInventry
                0x0000000000014438                txSFP_Inventry
                0x00000000000146b4                txBarCode
                0x00000000000147c0                tx_GUI_Log
                0x0000000000014850                rx_LocalTime
                0x0000000000014974                tx_EMS_Loopback
                0x00000000000149c4                rx_GUI_ID_PW
                0x0000000000014b04                UP_Data_Analysis
 .text          0x00000000000156ac      0x3cc ./obj/comm_conf.o
                0x00000000000156ac                Init_UDP_fd
                0x00000000000156fc                Get_UDP_fd
                0x0000000000015714                Close_UDP_fd
                0x0000000000015764                PreTxData
                0x000000000001576c                EndTxData
                0x0000000000015770                Recv_DN_Data
                0x0000000000015774                Recv_UP_Data
                0x000000000001581c                Get_UDP_Sock
                0x000000000001582c                Init_SIM_TCP_fd
                0x000000000001584c                Close_SIM_TCP_fd
                0x0000000000015864                Get_SIM_TCP_sock
                0x0000000000015874                Init_Comm
 .text          0x0000000000015a78     0x20b8 ./obj/comm_lib.o
                0x0000000000015a78                Get_IP32
                0x0000000000015a98                Re_Init_Comm
                0x0000000000015e2c                Close_UART_Comm
                0x0000000000015e78                UDP_IP_Re_Setting
                0x0000000000015e94                Comm_Que_Dbg
                0x0000000000015efc                Send_DN_Data
                0x000000000001604c                Send_UP_Data
                0x00000000000160a8                Send_gREMS_Data
                0x0000000000016144                Send_UDP_Node_Data
                0x00000000000161c4                Send_TCP_Data_GUI
                0x000000000001621c                Send_UDP_Data_GUI
                0x000000000001629c                Send_Localhost_Data
                0x00000000000163d8                Send_Tx_Only_Data
                0x0000000000016424                Check_UP_Data
                0x0000000000016588                Check_Node_SIM_Data
                0x0000000000016644                Check_Node_Data
                0x0000000000016754                Check_LSH_Data
                0x0000000000016858                Send_LSH_Data
                0x00000000000168dc                Set_BT_Name
                0x0000000000016a4c                send_BT_mode_CMD
                0x0000000000016b0c                BT_Init
                0x0000000000016f40                Set_Frame_Func
                0x0000000000016f54                AT91_UART_Init
                0x00000000000170b0                tcp_Client_init
                0x000000000001716c                udp_init
                0x0000000000017290                Init_Comm_Lib
                0x00000000000174a4                CheckUART_Error
                0x00000000000174a8                CheckCommFail
                0x00000000000174b0                GetQUE
                0x00000000000174c8                Get_Comm_fd_Status
                0x00000000000174e0                Add_UDP_Que
                0x00000000000175a4                RecvUDPDataQue_All
                0x000000000001761c                RecvUDPDataQue_lohost
                0x00000000000176b0                pktinfo_get
                0x0000000000017798                RecvUDPDataQue_LSH
                0x0000000000017808                GetUDPDataFromUDP_Que
                0x00000000000178fc                RecvCommDataQue
 .text          0x0000000000017b30      0xabc ./obj/Debug_Lib.o
                0x0000000000017c04                Chk_CommLogSize
                0x0000000000017c10                CheckCommLogSize
                0x0000000000017c58                CheckTextPortLogSize
                0x0000000000017c64                OpenTextLogFile
                0x0000000000017c9c                CheckTextLogSize
                0x0000000000017ce0                OpenTextPortLogFile
                0x0000000000017dbc                OpenCommLogFile
                0x0000000000017eb8                SetDebugCmd
                0x0000000000017f44                DebugConfig
                0x0000000000017f84                Debug_Init
                0x000000000001807c                TimeStampOut
                0x00000000000180fc                D_Printf
                0x0000000000018198                D4_Printf
                0x0000000000018248                Do4_Printf
                0x0000000000018300                Debug_Comm_Data
 .text          0x00000000000185ec      0xafc ./obj/frame.o
                0x00000000000185ec                Init_Que
                0x0000000000018610                ADD_Que
                0x000000000001864c                Init_Tx_Frame_SeqNo
                0x0000000000018668                Get_Tx_Frame_SeqNo
                0x0000000000018690                Get_Tx_Frame_SeqNo_Cur
                0x00000000000186ac                GetFrame
                0x0000000000018a20                Make_Frame_COMPACKT
                0x0000000000018ad4                Make_Frame
                0x0000000000018b88                Re_Make_Frame
                0x0000000000018c24                Make_Frame_PAU
                0x0000000000018ca4                Re_Make_Frame_PAU
                0x0000000000018d1c                GetFrame_PAU
 .text          0x00000000000190e8       0x9c ./obj/crc.o
                0x00000000000190e8                crcByteCalc
                0x0000000000019108                crcNByteCalc
                0x000000000001914c                crcLByteCalc
 .text          0x0000000000019184     0x2914 ./obj/util.o
                0x0000000000019184                AID_Pwr
                0x00000000000191b4                AID_Pwr_Ctrl
                0x00000000000191cc                ROUND
                0x000000000001921c                ROUND_05
                0x000000000001926c                ROUND_05U
                0x00000000000192c0                ntoa
                0x00000000000192d4                atoh
                0x0000000000019318                AHex2Dig
                0x00000000000193b4                AHex2Dig2
                0x0000000000019448                AHex2Dig_INT16
                0x0000000000019470                Dig2AHex
                0x0000000000019490                Dig2AHex_INT16U
                0x00000000000194cc                BCD2Dig
                0x00000000000194e4                Dig2BCD
                0x0000000000019510                MakePwrValue
                0x0000000000019554                MakePnValue
                0x0000000000019568                Make_3G_Channel_Value
                0x0000000000019584                Swap16
                0x0000000000019594                BYTE_to_INT32L
                0x000000000001959c                BYTE_to_INT32B
                0x00000000000195c0                INT32B_to_BYTE
                0x00000000000195e0                INT32L_to_BYTE
                0x0000000000019600                BYTE_to_INT16L
                0x0000000000019610                BYTE_to_INT16B
                0x0000000000019620                INT16B_to_BYTE
                0x0000000000019630                INT16L_to_BYTE
                0x0000000000019640                date_to_a
                0x00000000000196cc                calcBits
                0x0000000000019730                ctrlBits
                0x0000000000019774                Hysterisis_Alm_Chk
                0x00000000000197a4                Hys_Alm_Update
                0x00000000000197cc                HysAlarmCheck
                0x0000000000019818                MakeSMSInPowerVal
                0x0000000000019830                MakeGUIInPowerVal
                0x0000000000019848                MakeSMSPowerVal
                0x000000000001987c                MakePwrValue_GUI
                0x00000000000198a4                Get_Item_Idx2
                0x0000000000019914                Get_Y_From_x
                0x000000000001996c                Get_Differenc
                0x00000000000199c0                Get_OnOff_Str
                0x00000000000199e0                Get_Alarm_Str
                0x0000000000019a00                Get_P10_Str
                0x0000000000019a0c                Get_RP7_Str
                0x0000000000019a18                Get_fpga_Str
                0x0000000000019a24                Get_path4_Str
                0x0000000000019a7c                Get_RVS_5_Str
                0x0000000000019a88                Get_D10_Str
                0x0000000000019a94                Get_SM_Str
                0x0000000000019aa0                Get_Up_Dev_Str
                0x0000000000019aac                Get_Up_DevType_Str
                0x0000000000019ab8                Get_CMD_Str
                0x0000000000019b2c                Get_Rst_Reason_Str
                0x0000000000019c0c                Get__gREMS_Reset_Reason_Str
                0x0000000000019cec                set_system_time
                0x0000000000019d8c                set_Ro_system_time
                0x0000000000019dc0                init_key_val_str
                0x0000000000019df8                replace_keywd_value
                0x0000000000019fec                get_keywd_value
                0x000000000001a1d8                read_network_file
                0x000000000001a270                print_agent
                0x000000000001a2f0                system_agent
                0x000000000001a3c0                system_agent_sync
                0x000000000001a498                popen_agent
                0x000000000001a578                Net_Set_Info_Set
                0x000000000001a634                Net_Start
                0x000000000001a670                Net_Stop
                0x000000000001a6a4                disp_time
                0x000000000001a704                Get_Cur_UTC_Time
                0x000000000001a738                User_UTC_Set
                0x000000000001a7b4                change_utc_to_local
                0x000000000001a7d8                IS___Valid_gREMS_Local_Time
                0x000000000001a834                Change_Local_Time
                0x000000000001a920                conv_delay_1ns_to_001us
                0x000000000001a944                conv_delay_001us_to_1ns
                0x000000000001a960                conv_att_001_to_05
                0x000000000001a9a0                conv_att_01_to_05
                0x000000000001a9e0                conv_signed_att_01_to_05
                0x000000000001aa30                conv_att_001_to_025
                0x000000000001aa70                conv_att_025_to_05
                0x000000000001aaa8                conv_att_05_to_001
                0x000000000001aac8                conv_att_05_to_01
                0x000000000001aadc                conv_att_025_to_001
                0x000000000001aaf8                conv_att_05_to_025
                0x000000000001ab08                conv_signed_att_05_to_025
                0x000000000001ab18                Init_Debug_Path4
                0x000000000001ab30                Is_Debug_Path4
                0x000000000001ab4c                Is_Debug_Optic_Path
                0x000000000001ab74                Chk_Same_Process
                0x000000000001acb4                Get_Mem_Usage
                0x000000000001adb0                Proc___Ping_Test
                0x000000000001b1f8                CPU_Usage_Task
                0x000000000001b46c                Disp_IP_addr
                0x000000000001b4a0                Make_IP_addr_str
                0x000000000001b4c8                Close_System_Sock_fd
                0x000000000001b4e0                Proc__Get_System_MAC_IP
                0x000000000001b618                Set_System_HW_Mac
                0x000000000001b68c                Get_System_HW_Mac
                0x000000000001b7d4                Get_system_mac_ip
                0x000000000001b8dc                Net_Get_Info_Update
                0x000000000001b98c                GetUptime
                0x000000000001b9d8                Init__App_Timer
                0x000000000001b9f4                Start__App_Timer
                0x000000000001ba24                IsEnd__App_Timer
                0x000000000001ba94                Get__PRU_DDR_Memory_Clk_Info
 .text          0x000000000001ba98      0x2d4 ./obj/os_util.o
                0x000000000001ba98                OSTimerOverCheck_msec
                0x000000000001bb6c                OSTimerGet_msec
                0x000000000001bbf8                OSTimerOverCheck_Sec
                0x000000000001bc60                Thread_Priority_Init
                0x000000000001bcd0                InitTimeCheck
                0x000000000001bcdc                OSTimerReset
                0x000000000001bce0                PrintTimeCheck
 .text          0x000000000001bd6c      0x454 ./obj/devicelib.o
                0x000000000001bd6c                watchdog_start
                0x000000000001bd98                watchdog_end
                0x000000000001bdcc                watchdog_set_time
                0x000000000001be10                watchdog_get_time
                0x000000000001be50                watchdog_live
                0x000000000001bef8                watchdog_remained_ms
                0x000000000001bf20                watchdog_chk_remained
                0x000000000001bf74                watchdog_elapsed
                0x000000000001bf84                get_watchdog_live_time_min
                0x000000000001bf94                get_watchdog_live_time_max
                0x000000000001bfa4                Open_GPIO_Dev
                0x000000000001c020                Close_GPIO_Dev
                0x000000000001c050                ADC_SPI_Init
                0x000000000001c058                ADC_SPI_Comm
                0x000000000001c060                _init_gpio
                0x000000000001c0c8                _set_gpio
                0x000000000001c0f8                _get_gpio
                0x000000000001c128                _init_gpio_out
                0x000000000001c158                _init_gpio_in
                0x000000000001c188                _close_gpio
 .text          0x000000000001c1c0      0x22c ./obj/BT_Comm.o
                0x000000000001c1c0                Get_Bt_status
                0x000000000001c1d0                Set_Bt_req
                0x000000000001c1e0                check_BT_init
                0x000000000001c29c                BlueTooth_Comm_Task
 .text          0x000000000001c3ec     0x48a8 ./obj/down_load.o
                0x000000000001c4b4                update_pau_psu_file
                0x000000000001c59c                change_PAU_PSU_file
                0x000000000001c680                change_mmcblk_file
                0x000000000001c788                Update_image_ub
                0x000000000001c830                Update_Fpga_Bitstream
                0x000000000001ca8c                Make_App_File_Total_Path
                0x000000000001cb44                rxStartDownload
                0x000000000001cc64                rxReStartDownload
                0x000000000001ccb4                SaveInfoFile
                0x000000000001cdb4                CheckDN_File
                0x000000000001cf94                Is_File_Exist
                0x000000000001cfc0                Kill_Dig_App
                0x000000000001d018                Chk_Kill_Dig_App
                0x000000000001d05c                CopyImage_x
                0x000000000001d484                CopyImage
                0x000000000001d5d0                check_zip_DN_flag
                0x000000000001d6f0                set_zip_DN_flag
                0x000000000001d704                set_amp_DN_flag
                0x000000000001d75c                check_amp_DN_flag
                0x000000000001d774                set_amp_DN_sataus
                0x000000000001d7cc                set_amp_DN_confirm_END
                0x000000000001d83c                set_psu_DN_flag
                0x000000000001d860                set_psu_DN_sataus
                0x000000000001d884                set_psu_DN_confirm_END
                0x000000000001d8bc                Get_Name_and_Length_of_file
                0x000000000001d96c                file_copy
                0x000000000001dbc4                check_header_crc
                0x000000000001dc20                compare_Header
                0x000000000001dca0                Parsing_Header
                0x000000000001ddf8                unzip_Zip_FILE
                0x000000000001de90                HASH_Check_Zip_FILE
                0x000000000001dfa4                check_Zip_FILE
                0x000000000001e068                SaveDnDataFile
                0x000000000001e11c                Check_Data_Image_All
                0x000000000001e274                Check_Data_Image
                0x000000000001e364                file_re_name_to_DN
                0x000000000001e5d8                check_zip_files_PSU_PAU
                0x000000000001e80c                confirm_zip_files
                0x000000000001ec98                check_zip_files
                0x000000000001eca0                rxDataDownload
                0x000000000001f014                Clear_dir__tmp_DN_File
                0x000000000001f050                rxFinishConfirm
                0x000000000001f304                rxDNconfirm
                0x000000000001f518                RCU_download_Rusume
                0x000000000001f594                check_ftp_DN_cmd_ACK
                0x000000000001f5b4                set_ftp_time_t
                0x000000000001f664                ftp_get_pkg
                0x000000000001f910                Set_AMP_Zip_Ver
                0x000000000001f9b4                Zip_Ver_Set
                0x000000000001fb44                Init_Ver_Info
                0x000000000001fb98                Set_Ver_Info_Rcu
                0x000000000001fbbc                Set_Ver_Info_PSU
                0x000000000001fbe0                Set_Ver_Info_AMP
                0x000000000001fc14                Disp_Cur_All_Mod_Ver
                0x000000000001fd18                Disp_Zip_All_Mod_Ver
                0x000000000001fe18                Is_InValid_Version
                0x000000000001fe44                Upgrade_Decision
                0x000000000001fe98                Cmp_Version
                0x000000000002005c                rd_iro_version_info
                0x00000000000202b0                Get_RCU_Dn_File_Name
                0x0000000000020320                Get_PSU_Dn_File_Name
                0x0000000000020378                Get_AMP_Dn_File_Name
                0x0000000000020450                check_PSU_PAU_DN
                0x0000000000020540                check_ftp_time
                0x000000000002057c                DL_St_Fail_handle
                0x000000000002066c                system_call_Task
 .text          0x0000000000020c94      0x870 ./obj/eep_emul.o
                0x0000000000020c94                CheckVFile
                0x0000000000020d4c                SaveVFile
                0x0000000000020dc8                ResetInfo_Write
                0x0000000000020ec8                ResetInfo_Read
                0x0000000000020f18                Refresh_V_EEP
                0x0000000000021068                V_EEP_Write
                0x0000000000021120                V_EEP_Read
                0x0000000000021194                V_EEP_Copy_Backup
                0x0000000000021204                V_EEP_Read_All
                0x0000000000021400                V_Read_Rst_Info_All
                0x0000000000021494                InitEEP
 .text          0x0000000000021504      0xb14 ./obj/udp_comm.o
                0x0000000000021570                Get_Node_IP
                0x000000000002159c                Get_SUB_ID_IP
                0x00000000000215e4                Pass_Node_Data
                0x0000000000021694                Broad_Comm_Task
                0x00000000000216c8                Proc_UDP_GUI_Pkt
                0x00000000000217c8                Proc_REMS_Node_Pkt
                0x0000000000021910                UDP_DTU_Rx_Task
                0x0000000000021984                UDP_Sel_Task
                0x0000000000021c98                UDP_Sel_Proc_Task
                0x0000000000021f5c                pipe_create
                0x0000000000021f68                udp_rx_que_pipe_create
                0x0000000000021f88                udp_rx_que_pipe_destroy
                0x0000000000021fd8                pipe_udp_push_write
 .text          0x0000000000022018      0x110 ./obj/lo_host_comm.o
                0x0000000000022018                Disp_Flag_Data
 .text          0x0000000000022128     0x5a1c ./obj/lsh_udp_comm.o
                0x00000000000221e8                GetFrame_LSH
                0x00000000000223f8                Make_Frame_IE_Optic_Delay
                0x00000000000225dc                Make_Frame_IE_Measured_Power
                0x00000000000226f8                Make_Frame_IE_Time_Tick
                0x0000000000022750                Make_Frame_IE_System_Sts
                0x0000000000022830                Make_Frame_IE_Alarm_Data_Vaild_Indicator
                0x0000000000022870                Make_Frame_IE_Alarm
                0x0000000000024bac                Make_Frame_IE_Alarm_Change
                0x0000000000026084                Make_Frame_IE_Lower_Node_Id_Config
                0x0000000000026170                Make_Frame_IE_Initial_Information
                0x0000000000026208                Make_Frame_IE_TSSI_RSSI
                0x0000000000026330                Make_Frame_IE_Path_Status
                0x0000000000026400                Make_Frame_LSH
                0x0000000000026440                Get_LS_PortNo
                0x000000000002647c                Send_LSH_UDP_Data
                0x00000000000264a4                Send_FX_SYSTEM_STS_RSP
                0x0000000000026560                Send_FX_ALM_INFO
                0x0000000000026600                Send_FX_RUID_ACQU_NOTI
                0x0000000000026650                Send_FX_INIT_NOTI
                0x00000000000266a0                Send_FX_CnM_SW_NOTI
                0x00000000000266cc                Send_FX_ALM_INFO_NOTI
                0x000000000002678c                Send_FX_ReturnResult
                0x00000000000267c4                Send_FX_CPRI_STS_RSP
                0x0000000000026880                Send_FX_FA_STS_RSP
                0x00000000000268e8                Send_FX_PATH_STS_RSP
                0x0000000000026950                Recv_FX_SYSTEM_STS_REQ
                0x0000000000026990                Recv_FX_TIME_SYNC_REQ
                0x00000000000269c8                Recv_FX_DELAY_SET_REQ
                0x0000000000026d24                Recv_FX_RUID_ACQU_NOTI_ACK
                0x0000000000026f7c                Recv_FX_INIT_NOTI_ACK
                0x000000000002711c                Recv_System_Topology
                0x00000000000271e0                LSH_Data_Analysis
                0x0000000000027790                Proc___Ctrl_from_LS
                0x0000000000027a98                Proc_LSH_Node_Pkt
 .text          0x0000000000027b44     0x2574 ./obj/auto_cofig_proc.o
                0x0000000000027d78                Clear_net_valid_chk_cnt
                0x0000000000027d8c                Is_Valid_MAC
                0x0000000000027da8                Get_REC_Str
                0x0000000000027de4                Get_REC_Idx
                0x0000000000027e04                Set_System_Net_Info
                0x0000000000027fd8                Proc__PRU_Set_MAC_Addr
                0x0000000000027fdc                Check_Alarm_Change
                0x0000000000027ffc                Check_CnM_Path_Change_Clear
                0x0000000000028020                Check_CnM_Path_Change
                0x00000000000280e8                Init_Base_IP_Mac_Chk
                0x0000000000028118                Disp_IP_Mac
                0x00000000000281b4                Chk___Base_IP_Mac
                0x000000000002863c                Update__gREMS_IP
                0x000000000002884c                Update__Layer_IP
                0x0000000000028a28                Copy_Data_From_VSS
                0x0000000000028c5c                Set__Defult_Noti_IP
                0x0000000000028c70                Load__Noti_IP
                0x0000000000028d00                AutoConfig_Flag_Clear
                0x0000000000028dd0                Init_Noti_Process
                0x0000000000028de8                Calc__LS_ID
                0x0000000000028e9c                Remapping_Self_Ip
                0x0000000000028fbc                Remapping_Self_Ip_Use_RuId
                0x00000000000290ac                Remapping_Self_Ip_SS
                0x00000000000292a8                Remapping_Self_Ip_SS_Use_RuId
                0x00000000000296d8                Ip_Assign_Process
                0x00000000000296f0                AutoConfig_Proc
                0x0000000000029718                Timer_start_LS_Valid_Indicator
                0x0000000000029730                Proc__LS_Valid_Indicator
                0x0000000000029790                Proc___Mismatch_ID_Alarm
                0x00000000000299d8                IS__TimeOver_Id_Mismatch_Alm
                0x00000000000299e8                Clr__TimeOver_Id_Mismatch_Alm
                0x0000000000029a10                Get___RU_Initial_Status
                0x0000000000029a20                Set___RU_Initial_Status
                0x0000000000029a48                IS_User_AMP_ON_Control
                0x0000000000029a8c                IS_RU_Init_Completed
                0x0000000000029ad4                Is_LS_Delay_Normal
                0x0000000000029bb4                Set__PRU_Reg_Capture_DL_Time
                0x0000000000029bb8                Proc___gREMS_Comm_Start
                0x0000000000029d90                Auto_Config_Task
 .text          0x000000000002a0b8        0x0 ./obj/a_pru_mmap_proc.o
 .text          0x000000000002a0b8     0x283c ./obj/PAU_comm.o
                0x000000000002a2e4                uConv_x10
                0x000000000002a2f4                Conv_AMP_OFF_Reason
                0x000000000002a30c                PAU_Link_Fail_Set
                0x000000000002a340                IS__SD_Check_Enabled
                0x000000000002a384                IS__AMP_Use_Allowed
                0x000000000002a3a8                PAU_Table_PassData
                0x000000000002a3b0                PAU_ATT_Table_Conv_GUI_to_AMP
                0x000000000002a3fc                PAU_Table_ATT_PassData
                0x000000000002a404                Proc_Chk_AMP_Install
                0x000000000002a42c                AMP_Not_Use_Alarm_Mask
                0x000000000002a444                Is_Amp_Install
                0x000000000002a474                Disp_PAU_Cmd
                0x000000000002a650                PAU_Send_Data
                0x000000000002a658                AC_Fail_PAU_EN_Ctrl
                0x000000000002a660                AC_Fail_Chk
                0x000000000002a674                sendPAU_EnDis
                0x000000000002a6c8                PAU_EN_Ctrl
                0x000000000002a7c0                PAU_RESET_Ctrl
                0x000000000002a7c8                Fwd_Out_Att_Set
                0x000000000002a7e8                Rvs_Amp_OnOff
                0x000000000002a7f0                TPL_Fwd_Att_Set
                0x000000000002a810                Init_PAU_N_Ctrl
                0x000000000002a814                PAU_Ctrl_Req_Chk
                0x000000000002a818                Add_PAU_N_Ctrl_Data
                0x000000000002a820                Add_THRE_N_Ctrl_Data
                0x000000000002a828                Send_PAU_N_Ctrl
                0x000000000002a830                Send_PAU_N_Ctrl_Not_Used_AMP
                0x000000000002a838                sendPAU_GetInfo
                0x000000000002a840                Recv_PAU_Info
                0x000000000002a974                sendPAU_INFO_Ctrl
                0x000000000002a9f8                PAU_Polling
                0x000000000002aa7c                PAU_Auto_SD_Chk
                0x000000000002aa80                AMP_Init_Set
                0x000000000002aab0                PAU_DownLoad_PassData
                0x000000000002aab8                IS__TSSI_Low_Alarm
                0x000000000002ab38                Proc__AAU_Reset__By_OutLow_Alarm
                0x000000000002af4c                Update_Fwd_Pwr_Alm
                0x000000000002b220                Get_User_Rvs_Att
                0x000000000002b234                Rvs_Att_User_Init
                0x000000000002b268                IS_PAU_TX_RX_All_Off
                0x000000000002b308                IS_PAU_Algorithm_Off
                0x000000000002b340                Check_PAU_RF_Val
                0x000000000002b550                Chk_Pwr_AMP_Reset
                0x000000000002b5fc                Get_Vswr
                0x000000000002b604                PAU_Init_Proc
                0x000000000002b6cc                Init_PAU_Down_St
                0x000000000002b6e4                Get_Hightest_AMP_Temp
                0x000000000002b730                PRU_RVS_In_SD_Proc
                0x000000000002b734                PAU_FW_APPLY
                0x000000000002b7b4                Chk_AMP_Download_End
                0x000000000002b83c                Init_prev_amp_alm
                0x000000000002b850                Get_AMP_Prev_Alm
                0x000000000002b8bc                Chk_AMP_Alm_Update
                0x000000000002b94c                AMP_Std_AMP_Proc
                0x000000000002b96c                MIMO_Std_AMP_Proc
                0x000000000002bb54                AC_Fail_AMP_Proc
                0x000000000002bca4                AMP_Temp_0_Set
                0x000000000002bcc4                Is_All_PAU_CommFail
                0x000000000002bd10                Is_All_PAU_CommFail_Co
                0x000000000002bd58                AMP_Not_Use_RVS_OFF_Display
                0x000000000002bd7c                PAU_Comm_Task
                0x000000000002bd88                Check_AAU_RF_Val
                0x000000000002be74                Proc___AAU_RFU_Init
                0x000000000002c034                Proc___AAU_RFU
                0x000000000002c2b4                Init_AMP_MutiDn
                0x000000000002c2ec                Free_RAM_DnImg
                0x000000000002c318                Load_RAM_DnImg
                0x000000000002c43c                Get_Multi_Dn_Data
                0x000000000002c48c                Rx_PAU_AutoDown
                0x000000000002c6ac                AutoDown_PAU_Send_Data
                0x000000000002c6b4                AMP_Down_Fail
                0x000000000002c730                chk_amp_FW_confirm
                0x000000000002c870                Update_AMP_DL_State
                0x000000000002c874                Is_AMP_MultiDown
 .text          0x000000000002c8f4     0x1950 ./obj/psu_comm.o
                0x000000000002c968                Green_Mode_Ctrl
                0x000000000002c984                PSU_Init_Set
                0x000000000002c9a8                PSU_DownLoad_PassData
                0x000000000002c9b0                Get_PSU_AMP_SW_St
                0x000000000002ca18                Is_Ext_FAN_Alm
                0x000000000002ca38                RecvPSU_Status
                0x000000000002cd80                IS__PSU_Compatible
                0x000000000002cd88                IS__PSU_giRO
                0x000000000002cd90                IS___file_ext_(short *,  __restrict)
                0x000000000002cdb4                PSU_Send_Data
                0x000000000002cdbc                sendPsu_INFO_Ctrl
                0x000000000002ce24                PSU_Polling
                0x000000000002ce98                PSU_5G_Green_Mode_Ctrl
                0x000000000002cec0                PSU_FAN_Speed_Ctrl
                0x000000000002cee4                PSU_PSU_FAN_Ctrl
                0x000000000002cf14                PSU_Reset_Ctrl
                0x000000000002cf1c                PSU_Pwr_Reset_Ctrl
                0x000000000002cf24                PSU_BattCharge_Ctrl
                0x000000000002cf38                PSU_Get_Info
                0x000000000002cf40                Chk_PSU_Green_St
                0x000000000002cf44                Init_Psu_Down_St
                0x000000000002cf58                PSU_FAN_Ctrl_Chk
                0x000000000002d0e8                Proc_Ext_FAN_PWM_Ctrl
                0x000000000002d36c                Is_Ext_FAN_Low_Noise_Mode_for_24Hour
                0x000000000002d3a4                Is_Ext_FAN_Mode_Time
                0x000000000002d3bc                Proc_Ext_FAN_Mode
                0x000000000002d464                PSU_FW_APPLY
                0x000000000002d49c                Chk_PSU_Download_End
                0x000000000002d500                Batt_Abnormal_Mon_Disable
                0x000000000002d514                Is_Batt_Related_Alm
                0x000000000002d544                Use_Batt_Use
                0x000000000002d5a4                Get_Result_of_Batt_Diagnosis
                0x000000000002d5b4                Proc_Batt_Abnormal_Monitor
                0x000000000002d8b0                Is_Under_Batt_Self_Diagnosis
                0x000000000002d8e4                Is_PSU_CommFail
                0x000000000002d8fc                Is_PSU_CommFail_Co
                0x000000000002d914                Free_RAM_DnImg_PSU
                0x000000000002d93c                Load_RAM_DnImg_PSU
                0x000000000002da50                Get_Multi_Dn_Tot_Frame_Crc_PSU
                0x000000000002db04                Get_Multi_Dn_Data_PSU
                0x000000000002db44                Init_Psu_AutoDn
                0x000000000002db64                Rx_Psu_AutoDown
                0x000000000002dcf8                AutoDown_Psu_Send_Data
                0x000000000002dd00                PSU_Down_Fail
                0x000000000002dd64                PSU_FW_apply_reqest
                0x000000000002dddc                Proc_Psu_AutoDownload
                0x000000000002e044                Is_PSU_MultiDown
                0x000000000002e078                Proc_PSU_PkgDown
                0x000000000002e108                Update_PSU_DL_State
                0x000000000002e10c                Proc_Batt_Status
                0x000000000002e238                Psu_Comm_Task
 *fill*         0x000000000002e244        0x4 
 .text          0x000000000002e248     0x2ccc ./obj/alarm.o
                0x000000000002e458                LoadEEP
                0x000000000002e470                SaveEEP
                0x000000000002e490                LoadEEPTable
                0x000000000002e540                Load_POWER_Table
                0x000000000002e560                Load_ATT_Table
                0x000000000002e580                Load_AMP_TEMP_Table
                0x000000000002e5a0                Load_AMP_TEMP_Alpha_Table
                0x000000000002e5c4                Save_POWER_Table
                0x000000000002e5e4                Save_ATT_Table
                0x000000000002e604                Save_AMP_TEMP_Table
                0x000000000002e624                Save_AMP_TEMP_Alpha_Table
                0x000000000002e648                def_IP_Info_Set
                0x000000000002e680                Init_Status_struct
                0x000000000002e6c0                Check_m_Eep_Init_Value
                0x000000000002e914                init_con
                0x000000000002f290                Reset_Local_Timer
                0x000000000002f29c                Init_Local_Termial
                0x000000000002f2c4                Reset_BT_Re_Init_Timer
                0x000000000002f2d0                Update_GUI_Alm
                0x000000000002f414                PAU_FWD_AMP_St
                0x000000000002f45c                Disp_AMP_St
                0x000000000002f4d4                AMP_Alarm_St
                0x000000000002f51c                SetResetInfo
                0x000000000002f588                Check_PAU_Use
                0x000000000002f5a8                Init_AMP_Install
                0x000000000002f5bc                Is_RU_SISO
                0x000000000002f5d4                Is_SISO_AMP
                0x000000000002f5f4                Get_AMP_SS_MM
                0x000000000002f61c                Is_MIMO_AMP
                0x000000000002f620                Get_AMP_Pair
                0x000000000002f638                Download_Mode_Init
                0x000000000002f650                RepeaterInit
                0x000000000002f7e4                Update__Task_Count
                0x000000000002f838                IS__Task_Count_Update
                0x000000000002f888                Proc___Task_Working
                0x000000000002f998                Disp_version_only
                0x000000000002f9b0                Disp_Version_Console
                0x000000000002fa0c                Alarm_Mask_by_Service_Use
                0x000000000002fa10                IS__Standby_Status
                0x000000000002fa50                IS__Standby_Dly_REQ
                0x000000000002fa78                IS__TSSI_Not_Checking
                0x000000000002fb44                Chk_Sum_Arm
                0x000000000002fc80                Update_Door_Alm
                0x000000000002fcb4                Update_PAU_HW_Insert
                0x000000000002fcb8                Proc___PRU_Optic_Switch_St
                0x000000000002fcbc                Update_Temp_Alm
                0x000000000002fd84                Update_FAN_Alm
                0x000000000002fe0c                Update_PSU_Alm
                0x000000000002fe10                AAU__Conv_ADC_to_48v_IN
                0x000000000002fe78                Set__AAU_ADC_Chk_En
                0x000000000002fea4                IS__AAU_ADC_Chk_En
                0x000000000002fec0                Update_DTU_Voltages
                0x000000000002fed8                Chk_Alarm_JIG_Timeout
                0x000000000002ff58                CheckAlarm
                0x0000000000030068                disp_fwd_out_pwr
                0x000000000003006c                Proc_DL_OutPwr_Cal
                0x0000000000030448                PRU_PSU_Reset_Reg_Ctrl
                0x00000000000304b4                Proc_PSU_Reset
                0x00000000000304b8                ClearFwdSD_Mode
                0x00000000000304cc                AMP_Not_Use_Pwr_Chk
                0x0000000000030510                Is_SFP_Inserted
                0x0000000000030580                Proc___PRU_before_OpticSw_ON
                0x0000000000030584                Init___PRU_PYH_IC
                0x0000000000030588                Get_ASCII
                0x000000000003059c                Make_SN_from_InvSN
                0x00000000000306c4                Proc___Inventory_SN
                0x0000000000030a20                Alarm_Process
 .text          0x0000000000030f14     0x2438 ./obj/algorithm_rf.o
                0x0000000000031204                G_Timer_All_Init
                0x0000000000031228                G_Timer_Start
                0x0000000000031268                G_Timer_Stop
                0x000000000003128c                Get_G_CurTime_ms
                0x00000000000312b4                Is_G_Timeout
                0x00000000000312e4                Is_Timer_En
                0x0000000000031300                Proc_G_Timer
                0x000000000003135c                Init_RU_Proc
                0x000000000003137c                Is_PD_Alarm
                0x0000000000031384                Is_PD_Alarm_AMP_Std
                0x000000000003138c                IS_Dig_Alarm
                0x0000000000031394                GetOffReson
                0x00000000000313a8                Alarm_SD_Fwd
                0x0000000000031464                Alarm_SD_Rev
                0x00000000000315c0                AMP_All_Off
                0x00000000000315fc                Rvs_AMP_SD_f_Ctrl
                0x000000000003161c                Fwd_AMP_SD_f_Ctrl
                0x000000000003163c                Set__Reason_Dis_5117
                0x0000000000031700                Set__Reason_SD_5115
                0x0000000000031770                Get__Reason_Dis_5117
                0x000000000003178c                Get__Reason_SD_5115
                0x00000000000317d0                Get__Reason_Dis_5117_Ori
                0x00000000000317e4                Get__Reason_SD_5115_Ori
                0x00000000000317f8                Clr__Reason_Dis_5117
                0x000000000003181c                Clr__Reason_SD_5115
                0x0000000000031840                Clr__Reason_Dis_5117_Prev
                0x0000000000031858                Clr__Reason_SD_5115_Prev
                0x0000000000031870                Get__Str_Dis_5117
                0x00000000000318a4                Get__Str_SD_5115
                0x00000000000318c8                Get_Amp_stdby_st_Sum
                0x0000000000031948                Amp_Stdby_Use
                0x0000000000031970                Chk_Skip_AMP_Stdby
                0x00000000000319d8                Is_Not_Amp_Stdby_Use
                0x0000000000031a10                Is_AMP_Rvs_Off_Alarm
                0x0000000000031a24                Is_AMP_Alm_AMP_STD
                0x0000000000031abc                Is_AMP_SD_Alm_St
                0x0000000000031b70                IS___AmpStd_UnChk_AMP___Alarm
                0x0000000000031b78                Make_Stdby_Bk_AMP_St
                0x0000000000031b8c                AMP_User_Ctrl_Restore
                0x0000000000031c04                Is_Amp_Std_Mode_Time
                0x0000000000031c1c                AMP_Stdby_AMP_Ctrl_Chk
                0x0000000000031c70                IS___AmpStd_St_AMP
                0x0000000000031cd8                Backup_Cur_Alarm_St
                0x0000000000031ce4                AMP_Stby_Amp_Alarm_Adj
                0x0000000000031e44                Chk_End_of_AMP_Standby_Exit_Dly
                0x0000000000031e98                Amp_Stdby_Mode_Exit
                0x0000000000031ef8                IS__AMP_Std_Exit_Possible
                0x0000000000031f00                Init_AMP_Standby_Mode_Proc
                0x0000000000031f30                Is_MIMO_Mode_Time
                0x0000000000031f48                Mimo_Stdby_AMP_Ctrl_Chk
                0x0000000000031fa0                Init_MIMO_Std_Mode
                0x0000000000031fc4                Mimo_Standby_Exit_Dly_REQ
                0x0000000000031fec                Mimo_Standby_AMP_Off_flag
                0x0000000000032004                IS__Mimo_Standby_AMP_Off_flag
                0x000000000003201c                Chk_End_of_Mimo_Standby_Exit_Dly
                0x0000000000032074                Set_MIMO_Standby_St
                0x0000000000032080                StandBy_PAU_EN_Ctrl
                0x0000000000032138                Proc_AMP_Standby
                0x0000000000032644                Amp_StdBy_PAU_OFF_Req
                0x0000000000032674                Mimo_StBy_PAU_Ctrl_Req
                0x000000000003269c                Get_MIMO_Standby_Pwr_Level
                0x00000000000326a0                Proc_MIMO_Standby
                0x0000000000033144                Update_AC_Alm
                0x000000000003315c                Proc__SuperCap_AC_Alarm_Report
                0x00000000000331dc                Proc_AC_Fail_Batt_Save
                0x00000000000331e0                Is_AC_Fail
                0x00000000000331f8                AC_Alarm_Amp_Alarm_Adj
                0x0000000000033270                AC_Normal_Std_Mode_Restart_Chk
 .text          0x000000000003334c     0x7ac4 ./obj/protocol.o
                0x000000000003334c                Make_AID_0x02__
                0x0000000000033410                Make_AID_0x09__
                0x0000000000033438                Make_AID_Internal_B5
                0x00000000000334e8                Make_AID_0x00__
                0x0000000000033500                Make_AID_0x01__
                0x00000000000335b8                Make_AID_0x2B__
                0x00000000000335f0                Conv_uVal16_to_big_endian
                0x0000000000033600                Conv_uVal32_to_big_endian
                0x0000000000033620                AID2_Chk_Size
                0x0000000000033624                AID2_Chk_Layer
                0x0000000000033630                AID2_Chk_Carrier
                0x000000000003363c                Make_AID2_STR_Header
                0x00000000000336fc                Make_AID_0x50__
                0x0000000000033b74                Make_AID_0x51__
                0x0000000000033f78                Make_AID_0x52__
                0x00000000000342c0                Make_AID_0x53__
                0x00000000000346b0                Make_AID_0x54__
                0x0000000000034dc4                Make_AID_0x55__
                0x0000000000034eac                Make_AID_0x56__
                0x000000000003503c                Make_AID_Internal_B1
                0x00000000000350e8                Make_AID_Internal_B2
                0x0000000000035b94                Make_AID_Internal_B3
                0x0000000000035e68                Make_AID_Internal_B4
                0x00000000000375f8                Make_AID_Internal_B6
                0x0000000000037acc                Make_AID_Internal_F2
                0x0000000000037b30                Make_AID_Internal_CF
                0x0000000000037bcc                Make_AID_Internal_D4
                0x0000000000037c34                Make_AID2_STR_Header_Var_Size_2
                0x0000000000037c78                Make_AID2_STR_Header_Var_Size
                0x0000000000037d34                Make_AID_Internal_B0
                0x00000000000380d4                Make_AID_Internal_C0
                0x0000000000039960                Make_AID
                0x0000000000039d10                Get_RU_Cnt
                0x0000000000039db0                Make_Tree_Info
                0x0000000000039e78                Get_AID
                0x0000000000039e9c                Get__GUI_AID
                0x0000000000039ed0                Make_GUI_AID
                0x0000000000039f94                Make_SKT_AID
                0x0000000000039f98                Get_Log_AID_List
                0x000000000003a10c                Get_SKT_AID_List
                0x000000000003a1d0                Get_Tot_AID_NUM
                0x000000000003a220                Get_GUI_AID_Val
                0x000000000003a294                GetStatus
                0x000000000003a2cc                GetStatus_REMS_Hidden
                0x000000000003a320                Get_SKT_AID_2B
                0x000000000003a340                Get_Total_AID_LIST
                0x000000000003a45c                Is_AID2_Range
                0x000000000003a46c                Make_AID_Str_Reason
                0x000000000003a530                Make_AID_Struct
                0x000000000003a5ec                Make_gREMS_Alarm_AID_Struct
                0x000000000003a5f0                Print_AID2
                0x000000000003a81c                Proc__Chk_and_Disp__TSSI_Level
                0x000000000003a9a0                Proc__Chk_and_Disp__Out_Upper_Alarm
                0x000000000003ab08                Proc___Display_TSSI
                0x000000000003ac24                Init__Alarm_Timer
                0x000000000003ac3c                Init__All_Alarm_Timer
                0x000000000003accc                IS__alarm_timeout
                0x000000000003acfc                IS_normal_timeout
                0x000000000003ad30                Rst__alarm_timeout
                0x000000000003ad34                Rst_normal_timeout
                0x000000000003ad3c                Chk__alarm_normal_timeout
                0x000000000003ae0c                Chk_clock__alarm_normal_timeout
 .text          0x000000000003ae10     0xa044 ./obj/control.o
                0x000000000003bb58                InitCtrl
                0x000000000003bb8c                CtrlLock
                0x000000000003bb98                CtrlUnLock
                0x000000000003bba4                Ping_Test
                0x000000000003bbe0                Ping_Self_IP
                0x000000000003bc0c                Proc____GUI_Test_Alarm
                0x000000000003bc24                Parse_AID2_STR
                0x000000000003bca4                DL_CW_Level_Ctrl
                0x000000000003bcec                Use_DL_CW_Level_Ctrl
                0x000000000003bd4c                Use_DL_CW_OnOff_Ctrl
                0x000000000003bdb0                Use_Auto_SD_Mode_En
                0x000000000003bdd8                Use_FAN_Auto_Ctrl
                0x000000000003be38                Use_PSU_INT_FAN_Onoff_Ctrl
                0x000000000003be68                Use_Ext_FAN_Speed_Ctrl
                0x000000000003be80                PSU_Ext_FAN_Onoff_Ctrl
                0x000000000003beec                Use_PSU_Ext_FAN_Onoff_Ctrl
                0x000000000003bf04                Use_FAN_On__Temp_Ctrl
                0x000000000003bf60                Use_FAN_Off_Temp_Ctrl
                0x000000000003bfbc                Use_Fwd_Out_Pwr_Lmt_Set
                0x000000000003bffc                Use_Green_Mode
                0x000000000003c01c                Use_Green_Mode_Time
                0x000000000003c080                Use_AMP_Stdby_Mode_Time
                0x000000000003c08c                Use_MIMO_Stdby_Mode_Time
                0x000000000003c098                Use_FAN_Mode_Time
                0x000000000003c0a4                Use_TempLmt
                0x000000000003c0cc                Use_TempLmt_x10
                0x000000000003c0dc                Wr_BarCode
                0x000000000003c134                Chk_BarCode
                0x000000000003c16c                Wr_Node_Name
                0x000000000003c1b4                Chk_Node_Name
                0x000000000003c1e4                Get_PAU_Sw_St
                0x000000000003c260                Use_PwrAmp_Reset
                0x000000000003c294                Fwd_Out_Att_Set_Req
                0x000000000003c2b4                UseFwd_Out_Att
                0x000000000003c2e4                ATT_Pair_Onoff_Req
                0x000000000003c324                Use_ATT_Pair_Onoff
                0x000000000003c378                FB_Att_Req
                0x000000000003c3b8                Use_FB_Att
                0x000000000003c40c                FB_Offset_Att_Req
                0x000000000003c44c                DPD_Reset_Ctrl
                0x000000000003c450                Proc___DPD_Reset_to_Normal
                0x000000000003c454                Init_TestPort_CIM
                0x000000000003c458                Use_TestPort_CIM
                0x000000000003c45c                Use_d_HC_Threshold
                0x000000000003c49c                Use_d_HC_Threshold_AAU
                0x000000000003c598                Proc__Cpri_Alarm_Keep_Xsec
                0x000000000003c6ac                Proc__Clock_Normal_Keep_Xsec
                0x000000000003c72c                RE_Channel_BandWidth
                0x000000000003c7f8                DPD_OnOff_Ctrl
                0x000000000003c864                Use_d_DPD_OnOff
                0x000000000003c8e0                Use_d_CFR_Level
                0x000000000003c92c                Use_d_PAR_Level
                0x000000000003c948                Use_d_CFR_OnOff
                0x000000000003c9a4                User_DTU_Reset
                0x000000000003c9b4                step_01__round__step_05
                0x000000000003c9f0                roundoff_05
                0x000000000003ca14                Get_GainRegVal
                0x000000000003ca38                Chk_Dig_Max_Att
                0x000000000003ca44                conv_Reg_Gain_to___Att_x10
                0x000000000003cad8                conv_Reg_GuardTime_to_(short,...)(char) __restrict
                0x000000000003caec                conv_Reg_GuardTime_from_usec
                0x000000000003cb00                conv_Reg_TsyncDly_to_(short,...)(char) __restrict
                0x000000000003cb14                conv_Reg_TsyncDly_from_usec
                0x000000000003cb28                conv_AAU_Reg_GuardTime_to_(short,...)(char) __restrict
                0x000000000003cb50                conv_AAU_Reg_GuardTime_from_usec
                0x000000000003cb70                conv_Reg_GuardTime_to___usec_AAU_dl_2_UL
                0x000000000003cb84                conv_Reg_GuardTime_from_usec_AAU_dl_2_UL
                0x000000000003cb98                conv_Reg_GuardTime_to___usec_AAU_ul_2_DL
                0x000000000003cbac                conv_Reg_GuardTime_from_usec_AAU_ul_2_DL
                0x000000000003cbc8                conv_Reg_CfrGain_to___Gain
                0x000000000003cc08                conv_Reg_CfrGain_from_Gain
                0x000000000003cc40                Update_ARFCN_from_BW
                0x000000000003cc44                Update_CenterFreq_from_BW
                0x000000000003ce28                Use_d_RE_Channel_BandWidth
                0x000000000003d168                conv_Reg_Capture_to_(short,...)(char) __restrict
                0x000000000003d190                conv_Reg_Capture_from_usec
                0x000000000003d1b8                conv_Reg_RSSI_Time_to_(short,...)(char) __restrict
                0x000000000003d1e0                conv_Reg_RSSI_Time_from_usec
                0x000000000003d208                conv_Reg_delay_us_to___nsec
                0x000000000003d240                conv_Reg_delay_us_from_nsec
                0x000000000003d288                Use_TSYNC_Delay_Set_AAU
                0x000000000003d2c8                Use_d_Delay_Ctrl
                0x000000000003d5d4                Proc___PRU__BW_Gain_Compensation
                0x000000000003d6d0                Proc___DPD_St_DL_Delay_Offset
                0x000000000003d720                Proc___PRU_Tsync_Delay
                0x000000000003d810                conv_Reg_Clk_Recovery_to__AID
                0x000000000003d830                Use_d_FPGA_Delay_Ctrl
                0x000000000003d864                Use_OSM_Use
                0x000000000003d878                Conv_Gain_to_Att
                0x000000000003d89c                Conv_Gain_from_Att
                0x000000000003d8a8                Use_d_Cal_VCO
                0x000000000003d8f0                Use_d_Cal_VCO_AAU_1khz
                0x000000000003d938                Use_DL_ON_Guard_Time_Ctrl
                0x000000000003d990                Use_UL_to_DL_Guard_Time_Ctrl
                0x000000000003da20                Use_UL_ON_Guard_Time_Ctrl
                0x000000000003dab4                Use_DL_to_UL_Guard_Time_Ctrl
                0x000000000003db0c                DTU_DL_Path_Onoff
                0x000000000003dbfc                Use_DTU_DL_Path_Onoff
                0x000000000003dc2c                DTU_UL_Path_Onoff
                0x000000000003dcc4                Proc____AAU_Alarm_Fan_and_Temp
                0x000000000003dea0                Use_d_Payload_OnOff
                0x000000000003deb0                DTU_UL_Cascade_Onoff
                0x000000000003df48                Use_d_Rx_Casc_Add_OnOff_UL
                0x000000000003dfe0                Use_DTU_UL_Path_Onoff
                0x000000000003e010                LSH_Gain_Set
                0x000000000003e0c0                Use_LSH_Gain_Set
                0x000000000003e11c                Test_Pattern_Band_Gain_Set
                0x000000000003e198                Use_Test_Pattern_Band_Gain_Set
                0x000000000003e238                AID_Control
                0x00000000000448b8                LocalCtrl
                0x0000000000044a04                TSSI_SD_Level_Set
                0x0000000000044a1c                Height_Bal_Gain_Set
                0x0000000000044a34                Get__BW_Gain_Comp_PRU_x10
                0x0000000000044a48                Att_Digital_DL_SUM
                0x0000000000044a58                Use_Att_Digital_DL_SUM
                0x0000000000044a7c                Default_Setting
 .text          0x0000000000044e54      0x3bc ./obj/spi.o
                0x0000000000044e54                _rdwr_spi_dev
                0x0000000000044f18                Open_SPI_FPGA
                0x000000000004508c                Close_SPI_FPGA
                0x00000000000450a4                Rd_SPI_FPGA
                0x00000000000450e8                Wr_SPI_FPGA
 .text          0x0000000000045210    0x14060 ./obj/FPGA_Reg.o
                0x0000000000045210                cmd_quit
                0x0000000000045294                cmd_help
                0x00000000000453c4                cmd_regio
                0x0000000000047f90                Open_AXI_Reg
                0x0000000000047fb4                Close_AXI_Reg
                0x0000000000047fcc                Lock__FPGA_RdWr_Sem
                0x0000000000047fd8                UnLock__FPGA_RdWr_Sem
                0x0000000000047fe4                Rd_AXI_Reg
                0x000000000004804c                Wr_AXI_Reg
                0x0000000000048100                cmd_version
                0x0000000000048128                Make_Reg_Addr
                0x0000000000048168                Make_Reg_Addr_AAU_Axi
                0x00000000000481ac                Calculate_Reg_Address
                0x0000000000048ac8                Disp_Reg_Address
                0x0000000000048fb8                Calculate_Reg_Variable_Pointer
                0x0000000000048fc4                Init_All_Reg_Ctrl_Flag
                0x0000000000049270                Chk_RegCtrlFlag_Status
                0x0000000000049764                Proc_RW_wave_Register
                0x000000000004983c                Vss_Stable_Check
                0x0000000000049860                Vss_Stable_Init_All_Cnt
                0x000000000004986c                Init_Vss_Stable_Check
                0x0000000000049b2c                Read___AAU_Test_Pattern_Data
                0x0000000000049bf0                Read___AAU_Test_Pattern_En
                0x0000000000049c3c                Set___AAU_Test_Pattern_Addr
                0x0000000000049c48                Set___AAU_Test_Pattern_WrEn
                0x0000000000049c54                Set___AAU_Test_Pattern_wr_iq
                0x0000000000049c64                Proc___AAU_Loading_100M_Test_Pattern
                0x000000000004a080                Proc___AAU_Loading_Test_Pattern
                0x000000000004a818                Proc___AAU_DL_Det_SSB
                0x000000000004a8e8                Proc___AAU_DL_CW_Off
                0x000000000004ab18                Update__SFP_Vendor_Info
                0x000000000004ac50                IS_Alpha_Mhz_Existing
                0x000000000004ac70                IS_Alpha_Mhz_Not_Existing
                0x000000000004ac90                Get__BW_of_Alpha
                0x000000000004acc0                IS__Vaild_CPRI__Main
                0x000000000004acd8                IS__Vaild_CPRI_Alpha
                0x000000000004ad0c                AAU___EQ_Toggle_Set
                0x000000000004ad40                Get__PRU_TotPwr_x10_DL_TSSI
                0x000000000004ae20                IS__Clock_CPRI_Alarm
                0x000000000004ae80                Chk__PRU_DL_Out_Lower_Alarm
                0x000000000004b04c                Chk__AAU_DL_Out_Lower_Alarm
                0x000000000004b19c                Chk__SFP_Los_Ld_Alarm
                0x000000000004b1d4                Proc_Conv_DTU_Reg_to_mSt
                0x000000000004d000                Is_AAU_Only_Reg_Common
                0x000000000004d014                Is_AAU_Only_Reg_DSP_FA_MIMO
                0x000000000004d0ec                Is_AAU_Only_Reg_DSP_Common
                0x000000000004d0fc                Proc_Compare_Fpga_Register_RF
                0x000000000004d390                Read_FPGA_Reg
                0x000000000004d398                Write_FPGA_Reg
                0x000000000004d39c                Get_Curr_TSSI_Input_Pwr_Bal_Att_x10
                0x000000000004d420                PRU_DL_Gain_Set_Req
                0x000000000004d490                Proc__PRU_Bal_DTU_Att
                0x000000000004d5b0                Get__AAU_DL_Gain_Att_x10
                0x000000000004d5c4                AAU_DTU_ATT_Refresh
                0x000000000004d61c                Check_Fpga_Comm_Link
                0x000000000004d720                Is_DTU_Reg_CommFail_Co
                0x000000000004d738                Is_DTU_Reg_CommFail
                0x000000000004d73c                Proc_DTU_Alarm
                0x000000000004deb4                IS_BW_Valid
                0x000000000004defc                Is_CRPI_Upper
                0x000000000004df0c                Is_CRPI_Lower
                0x000000000004df1c                Is_CRPI_100Mhz
                0x000000000004df2c                Is_CRPI_A_Mhz
                0x000000000004df3c                Chk_SFP_Insert__CPRI_Lock
                0x000000000004df48                Get_CPRI_Lock
                0x000000000004df70                Reboot__CPRI_Alarm_Mask
                0x000000000004df74                Proc__Update_CPRI_Mscl_Status
                0x000000000004e190                Get_Instant_CPRI_Lock_St
                0x000000000004e244                Proc__Check_ClockFail
                0x000000000004e4cc                Proc_LS_Vss_Aive_Ack
                0x000000000004e564                Proc__SFP_Insert__CPRI_Lock
                0x000000000004efd0                Proc_LS_VSS_Channel
                0x0000000000050484                IS__CPRI_Lock
                0x00000000000504ac                Proc_Read_Fpga_Register
                0x0000000000051a58                Proc_Compare_Fpga_Register_VSS
                0x0000000000051a70                Proc_Compare_Fpga_Register
                0x00000000000523e8                Copy__RegSts__to__RegCtl
                0x000000000005276c                reg_SFP_Tx_EnDisable
                0x000000000005277c                PHY__Reset_Setting
                0x00000000000527c0                Proc___SFP_Recovery
                0x0000000000052be0                Proc_AAU_Ext_FAN_Ctrl
                0x0000000000052e48                Is_CPRI_LOF_Fail
                0x0000000000052ed4                Is_CPRI_LOS_Fail
                0x0000000000052f60                Proc___DTU_SD__Check
                0x0000000000053a8c                Proc___Shutdown_Ctrl
                0x0000000000053aa4                Proc___AAU_Reg_PLL
                0x0000000000053bc0                VSS_UL_RE_Reset_ACK_Sw_Default
                0x0000000000053be4                VSS_UL_RE_Reset_ACK_CPU_Access
                0x0000000000053bf4                Proc___VSS_UL_RE_Reset_ACK_Switch
                0x000000000005431c                Proc_LS_VSS_Copy_CPRI
                0x0000000000054334                Proc____PRU_LED
                0x0000000000054338                AAU_Polling_Aivie
                0x0000000000054350                Is_AAU_Polling_Now
                0x0000000000054388                IS_AAU_LED_Disabled
                0x0000000000054398                Proc___AAU_LED_Auto_Off
                0x00000000000544c0                Proc____AAU_LED
                0x0000000000054978                Get_TI_ALC_Att_x2
                0x000000000005499c                Get_Other_Company_Det_x10
                0x0000000000054a00                AAU_RF_DL_Att_Set
                0x0000000000054b1c                AAU__Fwd_Alc_Att_Set
                0x0000000000054b28                AAU_RF_UL_Att_Set
                0x0000000000054c40                AAU__Rvs_Alc_Att_Set
                0x0000000000054db4                AAU_UL_AFE_Att_Set
                0x0000000000054e00                AAU__RF_AMP_OnOff
                0x0000000000054f04                AAU__RF_LNA_OnOff
                0x0000000000054f08                Get__AAU_UL_Gain_Att_x10
                0x0000000000054f1c                Set_ALC_Gain_Comp_x10
                0x0000000000054f2c                Get_ALC_Gain_Comp_x10
                0x0000000000054f44                Get__AAU_User_Gain_x10
                0x0000000000054f74                Get__AAU_TotPwr_x10_UL_RSSI
                0x0000000000055008                Get__AAU_TotPwr_x10_DL_TSSI
                0x00000000000550a0                Proc___Calc_AAU_UL_Gain
                0x0000000000055100                Proc___AAU_RVS_In_ALC
                0x0000000000055474                Proc___AAU_RVS_Quick_ALC
                0x0000000000055614                Cal__AAU_BW_Path_Att_x10
                0x0000000000055628                Get__EQ1_Att_x10
                0x000000000005573c                Proc___AAU_DL_CFR_Adj
                0x0000000000055a00                AAU__Calc_filter_att
                0x0000000000055a20                conv_BW_to_eq_bw
                0x0000000000055a44                AAU___Loading_Get_EQ_Test_Pattern
                0x0000000000055c30                AAU__Get_EQ_Att_x10
                0x0000000000055c48                Proc__AAU__Get_EQ_Att_x10
                0x0000000000055fe8                AAU_RVS_SD_Init_Ctrl
                0x0000000000056008                SD_Init_Req
                0x0000000000056020                AAU_FWD_SD_Init_Req
                0x0000000000056040                Is__Rvs_SD_Total
                0x0000000000056068                AAU_Ctrl__UL_Over_Input
                0x000000000005678c                Proc___AAU_Rvs_Shutdown
                0x00000000000567a8                Proc___AAU_Fwd_Shutdown
                0x00000000000567c8                Proc___AAU_FWD_ALC
                0x00000000000568f0                IS__End_of_UL_Gain_Low_Offset
                0x0000000000056918                Set__End_of_UL_Gain_Low_Offset
                0x0000000000056960                Disp__AAU_GC_RSSI_RMS
                0x0000000000056994                Proc___AAU_UL_Gain_Low_Offset
                0x00000000000569a8                Proc___AAU_UL_Gain_Low
                0x0000000000056c24                Proc___AAU_ALC_OFF_Check
                0x0000000000056da8                Get_AAU_RF_Att_Accuracy_x2
                0x0000000000056dc0                Get_AAU_Curr_Table_TempAtt
                0x0000000000056dfc                Get_AAU_Curr_Table_Alpha_TempAtt
                0x0000000000056e38                Get_AAU_DTU_Alpha_Temp_Att_x10
                0x0000000000056e88                Update__AAU_Temp_Att
                0x0000000000056e94                Proc___AAU_Temp_Att
                0x0000000000056ea0                Proc___AAU_BW_Att
                0x0000000000056f7c                Proc___BIP__ErrCount
                0x0000000000056f94                Proc___Hard_Clipping
                0x00000000000570fc                Proc___LSH_Gain_Set
                0x0000000000057290                Proc___Test_Pattern_Band_Gain
                0x000000000005735c                Proc___Off_Test_Pattern
                0x00000000000574f4                IS_Valid_VSS_REC_Type
                0x0000000000057524                Proc__CPRI_Init_OSM_Ctrl
                0x0000000000057528                Proc__Disp_CPRI_Lock
                0x00000000000576b0                AAU__RF_Max_Att
                0x00000000000576bc                Set_Factory_Mode_Onoff
                0x00000000000576d8                Get_Factory_Mode
                0x00000000000576f0                IS__Board_St_Normal
                0x0000000000057784                AAU___AMP_Off_Max_Att
                0x00000000000577b8                AAU___Restore_AMP_Att
                0x00000000000577bc                AAU__Gain_Check_Mode_Ctrl
                0x000000000005796c                Write_Ctrl_Data_From_Eep
                0x0000000000058118                AAU___All_Off_GainChkMode_NoiseMode
                0x00000000000581e4                AAU__Gain_Check_Mode_dl_mode_Ctrl
                0x000000000005821c                Proc___AAU_GainCheck_NoiseDet
                0x0000000000058524                Init__BIP_ErrCnt_Accum
                0x0000000000058574                Init__HardClipCnt_Accum
                0x00000000000585c4                Proc__VSS_Monitor
                0x00000000000589b8                FPGA_Register_Task
 .text          0x0000000000059270      0x148 ./obj/temp_ic.o
                0x0000000000059270                Open_LM75_Temp
                0x00000000000592bc                Close_LM75_Temp
                0x00000000000592d4                Get_LM75_Temp
 .text          0x00000000000593b8      0x488 ./obj/dtu_udp_comm.o
                0x00000000000593b8                Init_Dtu_MutiDn
                0x0000000000059404                Init_Fpga_MutiDn
                0x0000000000059450                Dig_Get_Multi_Dn_Data
                0x000000000005960c                Rx_Dig_AutoDown
                0x00000000000597b0                Dig_Down_Fail
                0x00000000000597dc                Fw_Apply_Dly_Req
                0x00000000000597e0                Update_DIG_DL_State
                0x00000000000597e4                Is_Dig_MultiDown
 .text          0x0000000000059840      0xb04 ./obj/inventory.o
                0x0000000000059840                InventoryPrevUpdate
                0x00000000000598d8                InitialInvValue
                0x0000000000059914                RecvModuleInventory
                0x0000000000059980                CheckInvetoryRead
                0x0000000000059998                Inventory_Vaule_Set
                0x0000000000059a9c                Get_Inv_idx
                0x0000000000059aa4                InvetoryReadClear_mod
                0x0000000000059ac8                Clr_Inv_Read_Req
                0x0000000000059ae0                PAU_Inv_Read_Req
                0x0000000000059b14                Clr_Psu_Inv_Read_Req
                0x0000000000059b18                Psu_Inv_Read_Req
                0x0000000000059b1c                Inv_Read_Needed
                0x0000000000059b64                InitInventory
                0x0000000000059cc0                Update_SFP_Inventory
                0x0000000000059e00                CheckInvetoryUpdate
                0x0000000000059f58                InvetoryReadClear
                0x0000000000059f5c                Auto_Inv_Ready
                0x0000000000059f64                Get_Inventory
                0x000000000005a08c                IS__Valid_InvSN
                0x000000000005a128                SetInventory
                0x000000000005a2bc                Get_KST_inventory
 .text          0x000000000005a344     0x3700 ./obj/nms_alarm.o
                0x000000000005a36c                Make_ALM_EMS_SubData_Init
                0x000000000005a3c8                Make_ALM_EMS_SubData
                0x000000000005a470                Make_ALM_EMS_SubData_End
                0x000000000005a510                Check_ResetAlarm_gREMS
                0x000000000005a6c0                Chk_RebootAlarm_gREMS
                0x000000000005a6cc                Is_UDA_Alm_Posi
                0x000000000005a6e4                Get_gREMS_Alarm_Loc
                0x000000000005a800                Get__CPRI_Num
                0x000000000005a828                Init__Alm_Str_Lmt
                0x000000000005a9f0                Make_Alm_Str_Lmt
                0x000000000005adc8                Update_Alm_Str_Lmt
                0x000000000005b71c                Make_Alm_Str
                0x000000000005c1a8                Make_REMS_1024_Pkt_for_AC_Alarm
                0x000000000005c2e0                Send_PRU_AC_Alarm_gREMS_Only
                0x000000000005c31c                Send_PRU_AC_Alarm_gREMS
                0x000000000005c4c8                Make_Arm_gREMS
                0x000000000005c9e8                Check_UDA_Alarm_gREMS
                0x000000000005ca00                Check_UDA_Alarm_gREMS___When_RuInit
                0x000000000005cc48                Check_Alarm_gREMS
                0x000000000005cfb4                Check_Alarm_gREMS_______When_RuInit
                0x000000000005d274                Check_Suppress_Alm
                0x000000000005d594                Proc__Sending_Init_Alarm__When_RuInit_End
                0x000000000005d598                Init_Low_Alm_Mask_at_AMP_Init
                0x000000000005d5c0                Is_Low_Alm_Mask_at_AMP_Init
                0x000000000005d5d8                TimerStart_Low_Alm_at_AMP_Init
                0x000000000005d620                Proc_LowAlm_Mask_at_AMP_Init
                0x000000000005d624                Init_NMS_Alm_Proc
                0x000000000005d654                Start_Alm_Rpt_Pause_Timer
                0x000000000005d670                Chk_UDA_Alm_gREMS
                0x000000000005d690                Get_Alm_Conti_Max_Cnt
                0x000000000005d698                Chk_n_Make_NMS_Alm
 .text          0x000000000005da44     0x318c ./obj/log_file.o
                0x000000000005dea0                Make_Log_File_Name
                0x000000000005df48                Is_InValid__SysTime
                0x000000000005dfb0                NAND_Wr_Alarm_log
                0x000000000005e228                wr_ctrl_cmd_log
                0x000000000005e230                Rd_Pkt_Info_from_logfile
                0x000000000005e2a0                Wr_Pkt_Info_to_logfile
                0x000000000005e314                Rd_Pkt_from_logfile
                0x000000000005e394                Append_Pkt_to_logfile
                0x000000000005e470                delete__log
                0x000000000005e480                delete__log_chksum
                0x000000000005e498                delete__log_old
                0x000000000005e4b0                delete__log_chksum_old
                0x000000000005e4c8                delete__log_all
                0x000000000005e528                make_log_chksum
                0x000000000005e574                copy__log_old_from_current
                0x000000000005e5cc                Is__File_Existing
                0x000000000005e634                Flush_gREMS_Pktlog_File
                0x000000000005e8d8                Is__log_chksum_Valid
                0x000000000005eb88                copy__log_from_old
                0x000000000005ebd8                make_log_chksum_test
                0x000000000005ecfc                restore_from_old
                0x000000000005ee10                check_abnormal_log
                0x000000000005f03c                Init__PktLog
                0x000000000005f1d4                Wr_Alm_Pkt_to_log
                0x000000000005f528                Wr_Ctl_Pkt_to_log
                0x000000000005f8a8                Get_Pkt_from_log
                0x000000000005fb24                Update_Log_Alm_Ctl_Cnt
                0x000000000005fb48                Make_Alm_log_Frame
                0x000000000005fc24                Make_Current_Status_Pkt
                0x000000000005fcec                Init_Alm_Log_Info
                0x000000000005fd18                Calc_Chunk_Size
                0x000000000005fd30                Free_Alm_Log_Buf
                0x000000000005fd80                User_alarm_log_off
                0x000000000005fd84                MemAlloc_Alm_Log
                0x000000000005fe3c                User_alarm_log_on
                0x000000000005ff48                Buf_Wr_Current_Status
                0x000000000005ffa0                Chk_Alm_generating
                0x00000000000600c8                Proc_alarm_log
                0x0000000000060378                Remove_all_AlmLog_Files
                0x00000000000603b8                Check__Alarmlog_Directory
                0x000000000006049c                get__list_of_5m_log_file
                0x00000000000605fc                get__name_of_5m_log_file
                0x0000000000060620                Set__send_5m_log_file_via_sz
                0x0000000000060684                Is_Existing_sz
                0x00000000000606a4                Proc__send_5m_log_file_via_sz
                0x0000000000060814                Proc__Check_zModem_Timeout
                0x00000000000608e8                TEST__send_5m_log_file_via_sz
                0x0000000000060910                LOG_Task
                0x0000000000060b58                zModem_Task
 .text          0x0000000000060bd0      0x34c ./obj/i2c_dev.o
                0x0000000000060bd0                read_eep_byte
                0x0000000000060cb0                write_eep_byte
                0x0000000000060d74                write_eep_page
                0x0000000000060e9c                i2c_device_open
                0x0000000000060f04                i2c_device_close
 .text          0x0000000000060f1c      0x82c ./obj/log_reset.o
                0x00000000000611b4                Check__Resetlog_Directory
                0x0000000000061230                _is_file_size
                0x000000000006126c                _copy_file
                0x00000000000612e8                write_reset_event_log
                0x00000000000616b8                Wr__Reset_Reason_to_LogFile
 .text          0x0000000000061748      0x7f0 ./obj/log_event.o
                0x0000000000061a5c                Check__Eventlog_Directory
                0x0000000000061ad8                write_event_log
                0x0000000000061e7c                Wr__Event_to_LogFile
 .text          0x0000000000061f38      0x23c ./obj/SIM.o
                0x0000000000061f38                Check_UP_Data_SIM
                0x0000000000061fb0                SIM_Task
                0x00000000000620c4                SIM_task_req
 .text          0x0000000000062174      0x214 ./obj/ADC_ic.o
                0x0000000000062174                Open_ADC_ic_file
                0x0000000000062234                Close_ADC_ic_file
                0x000000000006224c                Close_ADC_ic_file_all
                0x000000000006227c                Get_ADC_voltage
                0x0000000000062370                Open_ADC_ic_all
 .text          0x0000000000062388     0x22e8 ./obj/uda_proc.o
                0x0000000000062488                Init_UDA_SuppAlm
                0x000000000006248c                Is_UDA_PayloadOff_Supp_Alm
                0x0000000000062494                Update_Payload_Alm
                0x000000000006258c                Get_Curr_Payload_Off_St
                0x00000000000625ec                Payload_St_Ctrl
                0x00000000000626d0                Payload_On_Def
                0x00000000000626e0                Ctrl_UDA_Spurious_Layer
                0x00000000000626f0                Is_RVS_Spurious
                0x0000000000062748                Is_RVS_Spur_Only_Off
                0x00000000000627a0                Proc___UDP_Spurious
                0x0000000000062ce0                Proc___RVS_Spurious_Payload
                0x0000000000062cf8                UDA_Auto_Reset_EEP_Save
                0x0000000000062dec                Get_UDA_Char
                0x0000000000062e1c                Set_UDA_Alarm__flag
                0x0000000000062e68                Valid_UDA_Alm_Code
                0x0000000000062e8c                Set_UDA_RST_Suppr_f
                0x0000000000062f1c                Valid_AutoRst_Flag_Code
                0x0000000000062f40                UDA_Auto_Rst_All_Init
                0x0000000000062f4c                UDA_Auto_Rst_Cnt_Clr
                0x0000000000062f68                UDA_Alm_Inc
                0x0000000000062f74                UDA_Alarm_Set
                0x0000000000063298                IS__UDA_Alarm
                0x00000000000632d8                Chk_Auto_Reset_By_UDA_Suppress
                0x00000000000635e0                UDA_Suppr_Alm_Ctrl
                0x000000000006366c                Proc___Reset_By_UDA
                0x00000000000638a0                Is_Alm_Gen
                0x00000000000638c8                Is_Alm_Now
                0x00000000000638e4                Proc___Auto_Rst_UDA
                0x000000000006453c                Use_UDA_Oper_Mode_Ctrl
                0x00000000000645dc                Init_UDA_Proc
 .text          0x0000000000064670        0x0 ./obj/pru_dpd.o
 .text          0x0000000000064670     0x3f00 ./obj/rems.o
                0x000000000006481c                Make_gREMS_Time_AID_Struct
                0x0000000000064858                Make_AID_Data
                0x00000000000648b4                Chk_Update_of_CF_nC
                0x0000000000064a5c                Disp_Stat_Time
                0x0000000000064ab0                Is_Stat_Enable
                0x0000000000064ac0                Enable_Stat
                0x0000000000064ad4                Stop_Stat
                0x0000000000064ae8                Supp_Alm_Timer_Init
                0x0000000000064afc                Supp_Alm_Timer_Inc
                0x0000000000064b28                Get_Supp_Alm_Time_Cnt
                0x0000000000064b4c                Supp_Alm_Timer_Clr
                0x0000000000064b74                Make_Suppress_Alarm
                0x0000000000064d7c                Clr_REMS_Struct
                0x0000000000064de0                Is_Time_In_Range_xx
                0x0000000000064e1c                Disp_Stat_St
                0x0000000000064e20                Update_Stat
                0x0000000000064f04                Calc_Stat_Average
                0x0000000000065004                Insert_Stat
                0x00000000000651a4                gREMS_Stat_Insert_AID
                0x00000000000655a0                gREMS_Stat_Init
                0x0000000000065624                Make_gREMS_AutoRpt_SubData
                0x00000000000656d0                Load_Stat_to_Buf
                0x000000000006590c                Make_Stat_Header
                0x0000000000065a50                Make_REMS_Stat_Pkt_Init
                0x0000000000065aa4                Make_STA_EMS_End
                0x0000000000065ad8                Make_Stat_Pkt
                0x0000000000065e6c                Calc_Time_Offset
                0x0000000000065ee4                Get_Cur_SysTime_3B
                0x0000000000065f04                Is_END_Time
                0x0000000000065fa8                Get_Stat_Period
                0x0000000000065fd8                Inc_Next_Time
                0x0000000000066170                Inc_Next_Start_time
                0x0000000000066298                Inc_Next_Rpt_time
                0x0000000000066470                Proc___Chk_gREMS_1_time_1_day
                0x00000000000665dc                Update_BTS_Name
                0x000000000006669c                Set__alm_que_idx_SuperCapChange
                0x00000000000666b8                Is__alm_que_idx_SuperCapChange
                0x00000000000666fc                Insert_Auto_Rpt_Q
                0x0000000000066724                Insert_Auto_Log_Q
                0x0000000000066728                Init_Statis_Q
                0x0000000000066744                Make_Statis_Q
                0x0000000000066838                Insert_Statis_Q
                0x0000000000066924                Proc___gREMS_Stat
                0x0000000000066b38                Get_Next_AutoRpt_From_Que
                0x0000000000066c20                Get_Next_AutoLog_From_Que
                0x0000000000066d00                Make_REMS_SubData
                0x0000000000066fa4                tx_gREMS_CFG__C_Status
                0x0000000000067054                tx_gREMS_Hidden_Status
                0x00000000000670e8                tx_gREMS_CFG_nC_Status
                0x000000000006717c                tx_gREMS_Mea_St2_Status
                0x0000000000067204                Proc___gREMS_RSP_1k
                0x000000000006732c                Proc___gREMS_RSP_1k_Mea
                0x0000000000067454                Init_Auto_Rpt_Flag
                0x000000000006746c                Send_gREMS_AutoReport_Data
                0x0000000000067690                Is__Valid_IP
                0x000000000006778c                Send_Auto_Inventory
                0x0000000000067820                Send_Auto_Inventory_By_Update
                0x00000000000678c8                Set__gREMS_local_Time_Request
                0x00000000000678dc                Clr__gREMS_local_Time_Request
                0x00000000000678f0                IS___gREMS_local_Time_Request
                0x0000000000067900                Send_LocalTime_Req
                0x0000000000067970                Set__gREMS_GUI_ID_PW_Request
                0x0000000000067984                Clr__gREMS_GUI_ID_PW_Request
                0x0000000000067998                IS___gREMS_GUI_ID_PW_Request
                0x00000000000679a8                Send_to_gREMS_GUI_ID_PW_Req
                0x0000000000067a18                Send_Auto_Report
                0x0000000000067c54                Update_Only_Alm_Log
                0x0000000000067d54                Chk_Make_Auto_Report
                0x0000000000067ec8                gREMS_Comm_Task
                0x000000000006821c                Chk_CFG_Ctrl_Auto_RPT_REQ
                0x00000000000682c8                REMS_St_Update
                0x00000000000682cc                Send_gREMS_Spectrum_Data
                0x0000000000068404                tx_gREMS_spectrum_set
                0x000000000006845c                tx_gREMS_spectrum_data_set
                0x00000000000684e4                Rems_Spectrum_Task
 .text          0x0000000000068570     0x12f8 ./obj/spectrum.o
                0x0000000000068570                Spectrum_calc
                0x00000000000689b0                rxSpectrumReq_SIM
                0x0000000000068b94                Init___Spectrum_Offset
                0x0000000000068c04                sigmon_span_converter
                0x0000000000068cc8                sigmon_ul_span_converter
                0x0000000000068ce8                sigmon_dl_span_converter
                0x0000000000068d08                Set_Curr_AAU__Spectrum_Mode
                0x0000000000068d60                Get_Curr_AAU__Spectrum_Mode
                0x0000000000068d7c                Get_Spectrum_Timer_ms
                0x0000000000068d88                save_dump_data
                0x0000000000068fe4                rxSpectrumRequest
 .text          0x0000000000069868      0x20c /opt/poky/2.2.1/sysroots/cortexa8hf-neon-poky-linux-gnueabi/usr/lib/arm-poky-linux-gnueabi/6.2.0/libgcc.a(_udivsi3.o)
                0x0000000000069868                __aeabi_uidiv
                0x0000000000069868                __udivsi3
                0x0000000000069a54                __aeabi_uidivmod
 .text          0x0000000000069a74      0x240 /opt/poky/2.2.1/sysroots/cortexa8hf-neon-poky-linux-gnueabi/usr/lib/arm-poky-linux-gnueabi/6.2.0/libgcc.a(_divsi3.o)
                0x0000000000069a74                __divsi3
                0x0000000000069a74                __aeabi_idiv
                0x0000000000069c94                __aeabi_idivmod
 .text          0x0000000000069cb4       0xd4 /opt/poky/2.2.1/sysroots/cortexa8hf-neon-poky-linux-gnueabi/usr/lib/arm-poky-linux-gnueabi/6.2.0/libgcc.a(_aeabi_ldivmod.o)
                0x0000000000069cb4                __aeabi_ldivmod
 .text          0x0000000000069d88       0x10 /opt/poky/2.2.1/sysroots/cortexa8hf-neon-poky-linux-gnueabi/usr/lib/arm-poky-linux-gnueabi/6.2.0/libgcc.a(_dvmd_lnx.o)
                0x0000000000069d88                __aeabi_ldiv0
                0x0000000000069d88                __aeabi_idiv0
 .text          0x0000000000069d98      0x118 /opt/poky/2.2.1/sysroots/cortexa8hf-neon-poky-linux-gnueabi/usr/lib/arm-poky-linux-gnueabi/6.2.0/libgcc.a(_udivmoddi4.o)
                0x0000000000069d98                __udivmoddi4
 .text          0x0000000000069eb0       0x64 /opt/poky/2.2.1/sysroots/cortexa8hf-neon-poky-linux-gnueabi/usr/lib/libc_nonshared.a(elf-init.oS)
                0x0000000000069eb0                __libc_csu_init
                0x0000000000069f10                __libc_csu_fini
 .text          0x0000000000069f14        0x0 /opt/poky/2.2.1/sysroots/cortexa8hf-neon-poky-linux-gnueabi/usr/lib/arm-poky-linux-gnueabi/6.2.0/crtend.o
 .text          0x0000000000069f14        0x0 /opt/poky/2.2.1/sysroots/cortexa8hf-neon-poky-linux-gnueabi/usr/lib/crtn.o
 *(.gnu.warning)
 *(.glue_7t)
 .glue_7t       0x0000000000069f14        0x0 linker stubs
 *(.glue_7)
 .glue_7        0x0000000000069f14        0x0 linker stubs
 *(.vfp11_veneer)
 .vfp11_veneer  0x0000000000069f14        0x0 linker stubs
 *(.v4_bx)
 .v4_bx         0x0000000000069f14        0x0 linker stubs

.fini           0x0000000000069f14        0x8
 *(SORT(.fini))
 .fini          0x0000000000069f14        0x4 /opt/poky/2.2.1/sysroots/cortexa8hf-neon-poky-linux-gnueabi/usr/lib/crti.o
                0x0000000000069f14                _fini
 .fini          0x0000000000069f18        0x4 /opt/poky/2.2.1/sysroots/cortexa8hf-neon-poky-linux-gnueabi/usr/lib/crtn.o
                [!provide]                        PROVIDE (__etext, .)
                [!provide]                        PROVIDE (_etext, .)
                [!provide]                        PROVIDE (etext, .)

.rodata         0x0000000000069f1c     0xda18
 *(.rodata .rodata.* .gnu.linkonce.r.*)
 .rodata.cst4   0x0000000000069f1c        0x4 /opt/poky/2.2.1/sysroots/cortexa8hf-neon-poky-linux-gnueabi/usr/lib/crt1.o
                0x0000000000069f1c                _IO_stdin_used
 .rodata.str1.4
                0x0000000000069f20      0x349 ./obj/main.o
 *fill*         0x000000000006a269        0x3 
 .rodata.str1.4
                0x000000000006a26c       0xb0 ./obj/cli.o
                                         0xb4 (size before relaxing)
 .rodata.str1.4
                0x000000000006a31c       0x15 ./obj/up_com.o
                                         0x20 (size before relaxing)
 *fill*         0x000000000006a331        0x3 
 .rodata.str1.4
                0x000000000006a334      0x3f4 ./obj/comm.o
                                        0x414 (size before relaxing)
 .rodata.str1.4
                0x000000000006a728       0x4b ./obj/comm_conf.o
                                         0x53 (size before relaxing)
 *fill*         0x000000000006a773        0x1 
 .rodata.str1.4
                0x000000000006a774      0x308 ./obj/comm_lib.o
                                        0x318 (size before relaxing)
 .rodata        0x000000000006aa7c       0xb0 ./obj/Debug_Lib.o
 .rodata.str1.4
                0x000000000006ab2c      0x370 ./obj/Debug_Lib.o
                                        0x394 (size before relaxing)
 .rodata.str1.4
                0x000000000006ae9c        0xb ./obj/frame.o
 *fill*         0x000000000006aea7        0x1 
 .rodata        0x000000000006aea8      0x200 ./obj/crc.o
 .rodata        0x000000000006b0a8      0x164 ./obj/util.o
                0x000000000006b0a8                cbits
                0x000000000006b0b0                nbits
                0x000000000006b0c4                nbits32
                0x000000000006b144                cbits32
                0x000000000006b1c4                nbits16
                0x000000000006b1e4                cbits16
                0x000000000006b204                n2bits
                0x000000000006b208                c2bits
 .rodata.str1.4
                0x000000000006b20c      0xa5e ./obj/util.o
                                        0xab6 (size before relaxing)
 *fill*         0x000000000006bc6a        0x2 
 .rodata.str1.4
                0x000000000006bc6c       0x2e ./obj/os_util.o
 *fill*         0x000000000006bc9a        0x2 
 .rodata.str1.4
                0x000000000006bc9c       0xb8 ./obj/devicelib.o
                                         0xc0 (size before relaxing)
 .rodata.str1.4
                0x000000000006bd54       0x29 ./obj/BT_Comm.o
                                         0x31 (size before relaxing)
 *fill*         0x000000000006bd7d        0x3 
 .rodata        0x000000000006bd80        0x4 ./obj/down_load.o
                0x000000000006bd80                Zip__Image
 .rodata.str1.4
                0x000000000006bd84     0x1869 ./obj/down_load.o
                                       0x18b5 (size before relaxing)
 *fill*         0x000000000006d5ed        0x3 
 .rodata.str1.4
                0x000000000006d5f0      0x40f ./obj/eep_emul.o
                                        0x42a (size before relaxing)
 *fill*         0x000000000006d9ff        0x1 
 .rodata.str1.4
                0x000000000006da00      0x183 ./obj/udp_comm.o
                                        0x18f (size before relaxing)
 *fill*         0x000000000006db83        0x1 
 .rodata.str1.4
                0x000000000006db84        0x3 ./obj/lo_host_comm.o
                                          0xa (size before relaxing)
 *fill*         0x000000000006db87        0x1 
 .rodata.str1.4
                0x000000000006db88      0xb0c ./obj/lsh_udp_comm.o
                                        0xb4c (size before relaxing)
 .rodata        0x000000000006e694       0x20 ./obj/auto_cofig_proc.o
 .rodata.str1.4
                0x000000000006e6b4      0x9d9 ./obj/auto_cofig_proc.o
                                        0xa21 (size before relaxing)
 *fill*         0x000000000006f08d        0x3 
 .rodata        0x000000000006f090        0x7 ./obj/PAU_comm.o
 *fill*         0x000000000006f097        0x1 
 .rodata.str1.4
                0x000000000006f098      0x7fd ./obj/PAU_comm.o
                                        0x825 (size before relaxing)
 *fill*         0x000000000006f895        0x3 
 .rodata.str1.4
                0x000000000006f898      0x334 ./obj/psu_comm.o
                                        0x3a0 (size before relaxing)
 .rodata        0x000000000006fbcc       0x18 ./obj/alarm.o
 .rodata.str1.4
                0x000000000006fbe4      0x475 ./obj/alarm.o
                                        0x4ce (size before relaxing)
 *fill*         0x0000000000070059        0x3 
 .rodata        0x000000000007005c       0x24 ./obj/algorithm_rf.o
 .rodata.str1.4
                0x0000000000070080      0x4c7 ./obj/algorithm_rf.o
                                        0x4f7 (size before relaxing)
 *fill*         0x0000000000070547        0x1 
 .rodata        0x0000000000070548     0x13e8 ./obj/protocol.o
                0x0000000000070548                skt_aid_list
                0x0000000000071524                ems_aid_func
 .rodata.str1.4
                0x0000000000071930      0x2a3 ./obj/protocol.o
                                        0x2bf (size before relaxing)
 *fill*         0x0000000000071bd3        0x1 
 .rodata        0x0000000000071bd4        0x4 ./obj/control.o
 .rodata.str1.4
                0x0000000000071bd8      0xc27 ./obj/control.o
                                        0xc90 (size before relaxing)
 *fill*         0x00000000000727ff        0x1 
 .rodata.str1.4
                0x0000000000072800      0x141 ./obj/spi.o
                                        0x149 (size before relaxing)
 *fill*         0x0000000000072941        0x3 
 .rodata        0x0000000000072944      0x180 ./obj/FPGA_Reg.o
 .rodata.str1.4
                0x0000000000072ac4     0x1fca ./obj/FPGA_Reg.o
                                       0x2062 (size before relaxing)
 *fill*         0x0000000000074a8e        0x2 
 .rodata.str1.4
                0x0000000000074a90       0x62 ./obj/temp_ic.o
 *fill*         0x0000000000074af2        0x2 
 .rodata.str1.4
                0x0000000000074af4      0x1a2 ./obj/dtu_udp_comm.o
 *fill*         0x0000000000074c96        0x2 
 .rodata.str1.4
                0x0000000000074c98       0x81 ./obj/inventory.o
                                         0x89 (size before relaxing)
 *fill*         0x0000000000074d19        0x3 
 .rodata        0x0000000000074d1c      0x2a8 ./obj/nms_alarm.o
                0x0000000000074d3c                Alm_AID
 .rodata.str1.4
                0x0000000000074fc4      0x701 ./obj/nms_alarm.o
                                        0x77d (size before relaxing)
 *fill*         0x00000000000756c5        0x3 
 .rodata        0x00000000000756c8        0x4 ./obj/log_file.o
 .rodata.str1.4
                0x00000000000756cc      0xc8c ./obj/log_file.o
                                        0xd24 (size before relaxing)
 .rodata.str1.4
                0x0000000000076358       0x76 ./obj/i2c_dev.o
 *fill*         0x00000000000763ce        0x2 
 .rodata.str1.4
                0x00000000000763d0      0x407 ./obj/log_reset.o
                                        0x43c (size before relaxing)
 *fill*         0x00000000000767d7        0x1 
 .rodata.str1.4
                0x00000000000767d8      0x2d2 ./obj/log_event.o
                                        0x2fe (size before relaxing)
 *fill*         0x0000000000076aaa        0x2 
 .rodata.str1.4
                0x0000000000076aac       0x2d ./obj/SIM.o
                                         0x35 (size before relaxing)
 *fill*         0x0000000000076ad9        0x3 
 .rodata.str1.4
                0x0000000000076adc       0xb9 ./obj/ADC_ic.o
                                         0xc4 (size before relaxing)
 *fill*         0x0000000000076b95        0x3 
 .rodata        0x0000000000076b98        0x4 ./obj/uda_proc.o
                0x0000000000076b98                Alm_Cnt_Max
 .rodata.str1.4
                0x0000000000076b9c      0x4e5 ./obj/uda_proc.o
                                        0x4fd (size before relaxing)
 *fill*         0x0000000000077081        0x3 
 .rodata        0x0000000000077084       0x10 ./obj/rems.o
 .rodata.str1.4
                0x0000000000077094      0x5cf ./obj/rems.o
                                        0x607 (size before relaxing)
 *fill*         0x0000000000077663        0x1 
 .rodata        0x0000000000077664       0xa0 ./obj/spectrum.o
 .rodata.str1.4
                0x0000000000077704      0x230 ./obj/spectrum.o

.rodata1
 *(.rodata1)

.ARM.extab      0x0000000000077934        0x0
 *(.ARM.extab* .gnu.linkonce.armextab.*)
 .ARM.extab     0x0000000000077934        0x0 /opt/poky/2.2.1/sysroots/cortexa8hf-neon-poky-linux-gnueabi/usr/lib/crt1.o
 .ARM.extab     0x0000000000077934        0x0 /opt/poky/2.2.1/sysroots/cortexa8hf-neon-poky-linux-gnueabi/usr/lib/arm-poky-linux-gnueabi/6.2.0/libgcc.a(_udivmoddi4.o)
                [!provide]                        PROVIDE (__exidx_start, .)

.ARM.exidx      0x0000000000077934        0x8
 *(.ARM.exidx* .gnu.linkonce.armexidx.*)
 .ARM.exidx     0x0000000000077934        0x8 /opt/poky/2.2.1/sysroots/cortexa8hf-neon-poky-linux-gnueabi/usr/lib/crt1.o
 .ARM.exidx     0x000000000007793c        0x0 /opt/poky/2.2.1/sysroots/cortexa8hf-neon-poky-linux-gnueabi/usr/lib/arm-poky-linux-gnueabi/6.2.0/libgcc.a(_udivmoddi4.o)
                                          0x8 (size before relaxing)
                [!provide]                        PROVIDE (__exidx_end, .)

.eh_frame_hdr
 *(.eh_frame_hdr)
 *(.eh_frame_entry .eh_frame_entry.*)

.eh_frame       0x000000000007793c        0x4
 *(.eh_frame)
 .eh_frame      0x000000000007793c        0x4 /opt/poky/2.2.1/sysroots/cortexa8hf-neon-poky-linux-gnueabi/usr/lib/arm-poky-linux-gnueabi/6.2.0/crtend.o
 *(.eh_frame.*)

.gcc_except_table
 *(.gcc_except_table .gcc_except_table.*)

.gnu_extab
 *(.gnu_extab*)

.exception_ranges
 *(.exception_ranges .exception_ranges*)
                0x0000000000088000                . = DATA_SEGMENT_ALIGN (0x10000, 0x1000)

.eh_frame
 *(.eh_frame)
 *(.eh_frame.*)

.gnu_extab
 *(.gnu_extab)

.gcc_except_table
 *(.gcc_except_table .gcc_except_table.*)

.exception_ranges
 *(.exception_ranges .exception_ranges*)

.tdata
 *(.tdata .tdata.* .gnu.linkonce.td.*)

.tbss
 *(.tbss .tbss.* .gnu.linkonce.tb.*)
 *(.tcommon)

.preinit_array  0x0000000000088000        0x0
                [!provide]                        PROVIDE (__preinit_array_start, .)
 *(.preinit_array)
                [!provide]                        PROVIDE (__preinit_array_end, .)

.init_array     0x0000000000088000        0x4
                0x0000000000088000                PROVIDE (__init_array_start, .)
 *(SORT(.init_array.*) SORT(.ctors.*))
 *(.init_array EXCLUDE_FILE(*crtend?.o *crtend.o *crtbegin?.o *crtbegin.o) .ctors)
 .init_array    0x0000000000088000        0x4 /opt/poky/2.2.1/sysroots/cortexa8hf-neon-poky-linux-gnueabi/usr/lib/arm-poky-linux-gnueabi/6.2.0/crtbegin.o
                0x0000000000088004                PROVIDE (__init_array_end, .)

.fini_array     0x0000000000088004        0x4
                [!provide]                        PROVIDE (__fini_array_start, .)
 *(SORT(.fini_array.*) SORT(.dtors.*))
 *(.fini_array EXCLUDE_FILE(*crtend?.o *crtend.o *crtbegin?.o *crtbegin.o) .dtors)
 .fini_array    0x0000000000088004        0x4 /opt/poky/2.2.1/sysroots/cortexa8hf-neon-poky-linux-gnueabi/usr/lib/arm-poky-linux-gnueabi/6.2.0/crtbegin.o
                [!provide]                        PROVIDE (__fini_array_end, .)

.ctors
 *crtbegin.o(.ctors)
 *crtbegin?.o(.ctors)
 *(EXCLUDE_FILE(*crtend?.o *crtend.o) .ctors)
 *(SORT(.ctors.*))
 *(.ctors)

.dtors
 *crtbegin.o(.dtors)
 *crtbegin?.o(.dtors)
 *(EXCLUDE_FILE(*crtend?.o *crtend.o) .dtors)
 *(SORT(.dtors.*))
 *(.dtors)

.jcr            0x0000000000088008        0x4
 *(.jcr)
 .jcr           0x0000000000088008        0x0 /opt/poky/2.2.1/sysroots/cortexa8hf-neon-poky-linux-gnueabi/usr/lib/arm-poky-linux-gnueabi/6.2.0/crtbegin.o
 .jcr           0x0000000000088008        0x4 /opt/poky/2.2.1/sysroots/cortexa8hf-neon-poky-linux-gnueabi/usr/lib/arm-poky-linux-gnueabi/6.2.0/crtend.o

.data.rel.ro
 *(.data.rel.ro.local* .gnu.linkonce.d.rel.ro.local.*)
 *(.data.rel.ro .data.rel.ro.* .gnu.linkonce.d.rel.ro.*)

.dynamic        0x000000000008800c       0xf8
 *(.dynamic)
 .dynamic       0x000000000008800c       0xf8 /opt/poky/2.2.1/sysroots/cortexa8hf-neon-poky-linux-gnueabi/usr/lib/crt1.o
                0x000000000008800c                _DYNAMIC
                0x0000000000088104                . = DATA_SEGMENT_RELRO_END (., 0x0)

.got            0x0000000000088104      0x1fc
 *(.got.plt)
 .got.plt       0x0000000000088104      0x1f8 /opt/poky/2.2.1/sysroots/cortexa8hf-neon-poky-linux-gnueabi/usr/lib/crt1.o
                0x0000000000088104                _GLOBAL_OFFSET_TABLE_
 *(.igot.plt)
 .igot.plt      0x00000000000882fc        0x0 /opt/poky/2.2.1/sysroots/cortexa8hf-neon-poky-linux-gnueabi/usr/lib/crt1.o
 *(.got)
 .got           0x00000000000882fc        0x4 /opt/poky/2.2.1/sysroots/cortexa8hf-neon-poky-linux-gnueabi/usr/lib/crt1.o
 *(.igot)

.data           0x0000000000088300     0x82cb
                [!provide]                        PROVIDE (__data_start, .)
 *(.data .data.* .gnu.linkonce.d.*)
 .data          0x0000000000088300        0x4 /opt/poky/2.2.1/sysroots/cortexa8hf-neon-poky-linux-gnueabi/usr/lib/crt1.o
                0x0000000000088300                data_start
                0x0000000000088300                __data_start
 .data          0x0000000000088304        0x0 /opt/poky/2.2.1/sysroots/cortexa8hf-neon-poky-linux-gnueabi/usr/lib/crti.o
 .data          0x0000000000088304        0x4 /opt/poky/2.2.1/sysroots/cortexa8hf-neon-poky-linux-gnueabi/usr/lib/arm-poky-linux-gnueabi/6.2.0/crtbegin.o
                0x0000000000088304                __dso_handle
 .data          0x0000000000088308       0x10 ./obj/main.o
                0x0000000000088308                DPD_CODE_IMAGE
                0x000000000008830c                FPG_CODE_IMAGE
                0x0000000000088310                DTU_CODE_IMAGE
                0x0000000000088314                RCU_CODE_IMAGE
 .data          0x0000000000088318        0x0 ./obj/cli.o
 .data          0x0000000000088318        0x0 ./obj/up_com.o
 .data          0x0000000000088318        0x0 ./obj/comm.o
 .data          0x0000000000088318        0x7 ./obj/comm_conf.o
 .data          0x000000000008831f        0x0 ./obj/comm_lib.o
 *fill*         0x000000000008831f        0x1 
 .data          0x0000000000088320        0x4 ./obj/Debug_Lib.o
                0x0000000000088320                Dbg_CFG_Text_En
 .data          0x0000000000088324        0x0 ./obj/frame.o
 .data          0x0000000000088324        0x0 ./obj/crc.o
 .data          0x0000000000088324       0x18 ./obj/util.o
                0x0000000000088324                _table
 .data          0x000000000008833c        0x0 ./obj/os_util.o
 .data          0x000000000008833c        0x8 ./obj/devicelib.o
 .data          0x0000000000088344        0x0 ./obj/BT_Comm.o
 .data          0x0000000000088344        0x9 ./obj/down_load.o
                0x0000000000088348                PKG_Check_name
 .data          0x000000000008834d        0x0 ./obj/eep_emul.o
 .data          0x000000000008834d        0x0 ./obj/udp_comm.o
 .data          0x000000000008834d        0x0 ./obj/lo_host_comm.o
 *fill*         0x000000000008834d        0x3 
 .data          0x0000000000088350        0x4 ./obj/lsh_udp_comm.o
 .data          0x0000000000088354        0x6 ./obj/auto_cofig_proc.o
 .data          0x000000000008835a        0x0 ./obj/a_pru_mmap_proc.o
 .data          0x000000000008835a        0x1 ./obj/PAU_comm.o
 .data          0x000000000008835b        0x1 ./obj/psu_comm.o
 .data          0x000000000008835c        0x1 ./obj/alarm.o
 .data          0x000000000008835d        0x0 ./obj/algorithm_rf.o
 .data          0x000000000008835d        0x0 ./obj/protocol.o
 *fill*         0x000000000008835d        0x3 
 .data          0x0000000000088360      0x1e8 ./obj/control.o
                0x0000000000088364                AAU_Attx2_to_Gain60_Reg
 .data          0x0000000000088548        0x4 ./obj/spi.o
 .data          0x000000000008854c     0x8068 ./obj/FPGA_Reg.o
                0x000000000008854c                usr_cmd_tbl
                0x0000000000088590                ants_axi_reg_fd
                0x0000000000088598                AAU_T_Pattern_100i
                0x0000000000089598                AAU_T_Pattern_100q
                0x000000000008a5b4                AAU_T_Pattern_80q
                0x000000000008b5b4                AAU_T_Pattern_80i
                0x000000000008c5b4                AAU_T_Pattern_60q
                0x000000000008d5b4                AAU_T_Pattern_60i
                0x000000000008e5b4                AAU_T_Pattern_40q
                0x000000000008f5b4                AAU_T_Pattern_40i
 .data          0x00000000000905b4        0x4 ./obj/temp_ic.o
 .data          0x00000000000905b8        0x4 ./obj/dtu_udp_comm.o
 .data          0x00000000000905bc        0x0 ./obj/inventory.o
 .data          0x00000000000905bc        0x0 ./obj/nms_alarm.o
 .data          0x00000000000905bc        0x0 ./obj/log_file.o
 .data          0x00000000000905bc        0x4 ./obj/i2c_dev.o
 .data          0x00000000000905c0        0x0 ./obj/log_reset.o
 .data          0x00000000000905c0        0x0 ./obj/log_event.o
 .data          0x00000000000905c0        0x0 ./obj/SIM.o
 .data          0x00000000000905c0        0x0 ./obj/ADC_ic.o
 .data          0x00000000000905c0        0x2 ./obj/uda_proc.o
 .data          0x00000000000905c2        0x0 ./obj/pru_dpd.o
 .data          0x00000000000905c2        0x9 ./obj/rems.o
 .data          0x00000000000905cb        0x0 ./obj/spectrum.o
 .data          0x00000000000905cb        0x0 /opt/poky/2.2.1/sysroots/cortexa8hf-neon-poky-linux-gnueabi/usr/lib/arm-poky-linux-gnueabi/6.2.0/libgcc.a(_udivsi3.o)
 .data          0x00000000000905cb        0x0 /opt/poky/2.2.1/sysroots/cortexa8hf-neon-poky-linux-gnueabi/usr/lib/arm-poky-linux-gnueabi/6.2.0/libgcc.a(_divsi3.o)
 .data          0x00000000000905cb        0x0 /opt/poky/2.2.1/sysroots/cortexa8hf-neon-poky-linux-gnueabi/usr/lib/arm-poky-linux-gnueabi/6.2.0/libgcc.a(_aeabi_ldivmod.o)
 .data          0x00000000000905cb        0x0 /opt/poky/2.2.1/sysroots/cortexa8hf-neon-poky-linux-gnueabi/usr/lib/arm-poky-linux-gnueabi/6.2.0/libgcc.a(_dvmd_lnx.o)
 .data          0x00000000000905cb        0x0 /opt/poky/2.2.1/sysroots/cortexa8hf-neon-poky-linux-gnueabi/usr/lib/arm-poky-linux-gnueabi/6.2.0/libgcc.a(_udivmoddi4.o)
 .data          0x00000000000905cb        0x0 /opt/poky/2.2.1/sysroots/cortexa8hf-neon-poky-linux-gnueabi/usr/lib/libc_nonshared.a(elf-init.oS)
 .data          0x00000000000905cb        0x0 /opt/poky/2.2.1/sysroots/cortexa8hf-neon-poky-linux-gnueabi/usr/lib/arm-poky-linux-gnueabi/6.2.0/crtend.o
 .data          0x00000000000905cb        0x0 /opt/poky/2.2.1/sysroots/cortexa8hf-neon-poky-linux-gnueabi/usr/lib/crtn.o

.tm_clone_table
                0x00000000000905cc        0x0
 .tm_clone_table
                0x00000000000905cc        0x0 /opt/poky/2.2.1/sysroots/cortexa8hf-neon-poky-linux-gnueabi/usr/lib/arm-poky-linux-gnueabi/6.2.0/crtbegin.o
 .tm_clone_table
                0x00000000000905cc        0x0 /opt/poky/2.2.1/sysroots/cortexa8hf-neon-poky-linux-gnueabi/usr/lib/arm-poky-linux-gnueabi/6.2.0/crtend.o

.data1
 *(.data1)
                0x00000000000905cc                _edata = .
                [!provide]                        PROVIDE (edata, .)
                0x00000000000905cc                . = .
                0x00000000000905cc                __bss_start = .
                0x00000000000905cc                __bss_start__ = .

.bss            0x00000000000905d0   0x5a0a28
 *(.dynbss)
 *fill*         0x00000000000905d0        0x0 
 .dynbss        0x00000000000905d0       0x1c /opt/poky/2.2.1/sysroots/cortexa8hf-neon-poky-linux-gnueabi/usr/lib/crt1.o
                0x00000000000905d0                optind@@GLIBC_2.4
                0x00000000000905d4                optopt@@GLIBC_2.4
                0x00000000000905d8                stdin@@GLIBC_2.4
                0x00000000000905dc                stdout@@GLIBC_2.4
                0x00000000000905e0                opterr@@GLIBC_2.4
                0x00000000000905e8                optarg@@GLIBC_2.4
 *(.bss .bss.* .gnu.linkonce.b.*)
 .bss           0x00000000000905ec        0x0 /opt/poky/2.2.1/sysroots/cortexa8hf-neon-poky-linux-gnueabi/usr/lib/crt1.o
 .bss           0x00000000000905ec        0x0 /opt/poky/2.2.1/sysroots/cortexa8hf-neon-poky-linux-gnueabi/usr/lib/crti.o
 .bss           0x00000000000905ec        0x1 /opt/poky/2.2.1/sysroots/cortexa8hf-neon-poky-linux-gnueabi/usr/lib/arm-poky-linux-gnueabi/6.2.0/crtbegin.o
 *fill*         0x00000000000905ed        0x3 
 .bss           0x00000000000905f0      0x540 ./obj/main.o
                0x0000000000090b14                daemon_mode
                0x0000000000090b18                rcu_cli_mode
                0x0000000000090b1c                ver_disp_mode
                0x0000000000090b20                ver_return_mode
                0x0000000000090b28                ALM_JIG_MODE
                0x0000000000090b2c                JIG_MODE
 .bss           0x0000000000090b30      0x140 ./obj/cli.o
 .bss           0x0000000000090c70    0x22040 ./obj/up_com.o
 .bss           0x00000000000b2cb0       0x55 ./obj/comm.o
 *fill*         0x00000000000b2d05        0x3 
 .bss           0x00000000000b2d08       0x2c ./obj/comm_conf.o
 .bss           0x00000000000b2d34    0x6e838 ./obj/comm_lib.o
                0x00000000000b2d34                UART_ERR_CO
 .bss           0x000000000012156c      0x124 ./obj/Debug_Lib.o
                0x0000000000121670                Dbg_CFG_Comm_En
 .bss           0x0000000000121690       0x16 ./obj/frame.o
 .bss           0x00000000001216a6        0x0 ./obj/crc.o
 *fill*         0x00000000001216a6        0x2 
 .bss           0x00000000001216a8       0x48 ./obj/util.o
 .bss           0x00000000001216f0        0x0 ./obj/os_util.o
 .bss           0x00000000001216f0       0x18 ./obj/devicelib.o
 .bss           0x0000000000121708    0x11024 ./obj/BT_Comm.o
                0x0000000000121708                BT_status
                0x0000000000121709                BT_req
 .bss           0x000000000013272c      0x825 ./obj/down_load.o
                0x00000000001328d2                ftp_txf_port
 *fill*         0x0000000000132f51        0x3 
 .bss           0x0000000000132f54     0x8058 ./obj/eep_emul.o
 .bss           0x000000000013afac    0x22058 ./obj/udp_comm.o
 .bss           0x000000000015d004        0x0 ./obj/lo_host_comm.o
 .bss           0x000000000015d004    0x1a84c ./obj/lsh_udp_comm.o
 .bss           0x0000000000177850       0x5c ./obj/auto_cofig_proc.o
 .bss           0x00000000001778ac        0x0 ./obj/a_pru_mmap_proc.o
 .bss           0x00000000001778ac       0x6c ./obj/PAU_comm.o
 .bss           0x0000000000177918       0x55 ./obj/psu_comm.o
 *fill*         0x000000000017796d        0x3 
 .bss           0x0000000000177970       0x90 ./obj/alarm.o
 .bss           0x0000000000177a00       0xf4 ./obj/algorithm_rf.o
 .bss           0x0000000000177af4       0x14 ./obj/protocol.o
 .bss           0x0000000000177b08      0x284 ./obj/control.o
 .bss           0x0000000000177d8c        0x0 ./obj/spi.o
 .bss           0x0000000000177d8c    0x11a32 ./obj/FPGA_Reg.o
 *fill*         0x00000000001897be        0x2 
 .bss           0x00000000001897c0        0x4 ./obj/temp_ic.o
 .bss           0x00000000001897c4        0x0 ./obj/dtu_udp_comm.o
 .bss           0x00000000001897c4       0x20 ./obj/inventory.o
 .bss           0x00000000001897e4     0xaef8 ./obj/nms_alarm.o
 .bss           0x00000000001946dc     0xd7c0 ./obj/log_file.o
 .bss           0x00000000001a1e9c        0x0 ./obj/i2c_dev.o
 .bss           0x00000000001a1e9c        0x0 ./obj/log_reset.o
 .bss           0x00000000001a1e9c        0x0 ./obj/log_event.o
 .bss           0x00000000001a1e9c    0x11020 ./obj/SIM.o
 .bss           0x00000000001b2ebc       0x10 ./obj/ADC_ic.o
 .bss           0x00000000001b2ecc      0x190 ./obj/uda_proc.o
 .bss           0x00000000001b305c        0x0 ./obj/pru_dpd.o
 .bss           0x00000000001b305c    0x35b58 ./obj/rems.o
 .bss           0x00000000001e8bb4        0x0 ./obj/spectrum.o
 .bss           0x00000000001e8bb4        0x0 /opt/poky/2.2.1/sysroots/cortexa8hf-neon-poky-linux-gnueabi/usr/lib/arm-poky-linux-gnueabi/6.2.0/libgcc.a(_udivsi3.o)
 .bss           0x00000000001e8bb4        0x0 /opt/poky/2.2.1/sysroots/cortexa8hf-neon-poky-linux-gnueabi/usr/lib/arm-poky-linux-gnueabi/6.2.0/libgcc.a(_divsi3.o)
 .bss           0x00000000001e8bb4        0x0 /opt/poky/2.2.1/sysroots/cortexa8hf-neon-poky-linux-gnueabi/usr/lib/arm-poky-linux-gnueabi/6.2.0/libgcc.a(_aeabi_ldivmod.o)
 .bss           0x00000000001e8bb4        0x0 /opt/poky/2.2.1/sysroots/cortexa8hf-neon-poky-linux-gnueabi/usr/lib/arm-poky-linux-gnueabi/6.2.0/libgcc.a(_dvmd_lnx.o)
 .bss           0x00000000001e8bb4        0x0 /opt/poky/2.2.1/sysroots/cortexa8hf-neon-poky-linux-gnueabi/usr/lib/arm-poky-linux-gnueabi/6.2.0/libgcc.a(_udivmoddi4.o)
 .bss           0x00000000001e8bb4        0x0 /opt/poky/2.2.1/sysroots/cortexa8hf-neon-poky-linux-gnueabi/usr/lib/libc_nonshared.a(elf-init.oS)
 .bss           0x00000000001e8bb4        0x0 /opt/poky/2.2.1/sysroots/cortexa8hf-neon-poky-linux-gnueabi/usr/lib/arm-poky-linux-gnueabi/6.2.0/crtend.o
 .bss           0x00000000001e8bb4        0x0 /opt/poky/2.2.1/sysroots/cortexa8hf-neon-poky-linux-gnueabi/usr/lib/crtn.o
 *(COMMON)
 COMMON         0x00000000001e8bb4    0x1c881 ./obj/main.o
                0x00000000001e8bb4                m_Uda
                0x00000000001e8be0                Reg_ALC__Cnt
                0x00000000001e8bf0                Reg_TDD2__Cnt
                0x00000000001e8bf8                f_Req
                0x00000000001e8c00                Reg_TDD__Cnt
                0x00000000001e8c04                m_St
                0x00000000001e9d30                Reg_VSS_DL_flag
                0x00000000001e9ecc                Reg_DSP_FA_MIMO_Addr
                0x00000000001ea72c                Reg_CFR_Addr
                0x00000000001ea75c                Reg_TDD_Addr
                0x00000000001ea7e0                m_AMP_tmp_tbl_Alpha
                0x00000000001ea8d0                pReg_VSS_UL_Addr
                0x00000000001ebc20                Reg_RFU_CTRL_Addr
                0x00000000001ebc60                pReg_AXI_CPRI_Addr
                0x00000000001ebd50                Reg_DPD_flag
                0x00000000001ebd94                Reg_DPD2__Cnt
                0x00000000001ebd98                Reg_DSP_Common_MIMO__Cnt
                0x00000000001ebda8                m_Ro
                0x00000000001ebdac                Reg_DSP_Common_MIMO_Addr
                0x00000000001ebe3c                sR
                0x00000000001efe3c                pReg_Common_Addr
                0x00000000001f0178                m_Env
                0x00000000001f0598                pReg_CFR_Addr
                0x00000000001f0628                br_FFT
                0x00000000001f4628                Reg_AXI_CPRI_Cnt
                0x00000000001f4638                pReg_DSP_FA_MIMO_Addr
                0x00000000001f5f58                m_ATT_AMP_tbl
                0x00000000001f6170                Reg_DSP_Common_flag
                0x00000000001f61a8                pReg_TDD_Addr
                0x00000000001f6334                m_pwr_tbl
                0x00000000001f650c                Reg_Common_Addr
                0x00000000001f6620                pReg_DSP_Common_Addr
                0x00000000001f689c                pReg_DSP_Common_MIMO_Addr
                0x00000000001f6a4c                Reg_ALC_flag
                0x00000000001f6a5c                Reg_CFR__Cnt
                0x00000000001f6a6c                Reg_AXI_CPRI_flag
                0x00000000001f6a80                Reg_AXI_CPRI_Addr
                0x00000000001f6ad0                Reg_TDD_flag
                0x00000000001f6af4                Reg_RFU_CTRL__Cnt
                0x00000000001f6b04                pReg_TDD2_Addr
                0x00000000001f6eac                Reg_Common_MIMO_flag
                0x00000000001f6f30                m_Eep
                0x00000000001f7c40                Reg_COMP_ONOFF_Addr
                0x00000000001f7c50                Reg_VSS_UL__Cnt
                0x00000000001f7c60                Reg_DPD2_Addr
                0x00000000001f7c78                wn_FFT
                0x00000000001fdc78                Reg_DSP_Common_MIMO_flag
                0x00000000001fdc9c                Reg_DPD__Cnt
                0x00000000001fdcac                m_Req
                0x00000000001fdcb4                Reg_TDD2_flag
                0x00000000001fdd04                E_AUTO_CONFIG_STEP
                0x00000000001fdd08                pReg_VSS_DL_Addr
                0x00000000001ff058                m_AMP_tmp_tbl
                0x00000000001ff148                Reg_TDD2_Addr
                0x00000000001ff280                Reg_DPD_Addr
                0x00000000001ff390                Reg_VSS_DL__Cnt
                0x00000000001ff3a0                spectrum_timer
                0x00000000001ff3a8                Reg_VSS_UL_Addr
                0x00000000001ffa18                m_rst_info
                0x00000000001ffa48                pReg_DPD2_Addr
                0x00000000001ffa90                Reg_VSS_UL_flag
                0x00000000001ffc2c                pReg_Common_MIMO_Addr
                0x000000000020025c                E_IP_ASSIGN_STEP
                0x0000000000200260                E_INIT_NOTI_STEP
                0x0000000000200264                Reg_Common_MIMO_Addr
                0x0000000000200474                Reg_DSP_FA_Common_flag
                0x000000000020047c                pReg_DSP_FA_Common_Addr
                0x00000000002004dc                sI
                0x00000000002044dc                Reg_VSS_DL_Addr
                0x0000000000204b4c                Reg_DSP_FA_Common_Addr
                0x0000000000204b6c                Reg_DSP_Common__Cnt
                0x0000000000204b70                pReg_RFU_CTRL_Addr
                0x0000000000204c30                pReg_COMP_ONOFF_Addr
                0x0000000000204c60                Reg_COMP_ONOFF_Cnt
                0x0000000000204c70                Reg_Common_MIMO__Cnt
                0x0000000000204c80                Reg_COMP_ONOFF_flag
                0x0000000000204c84                Reg_DPD2_flag
                0x0000000000204c8c                Reg_Common__Cnt
                0x0000000000204c90                Reg_DSP_Common_Addr
                0x0000000000204d64                pReg_DPD_Addr
                0x0000000000205094                Reg_RFU_CTRL_flag
                0x00000000002050a4                Reg_DSP_FA_MIMO__Cnt
                0x00000000002050c4                Reg_DSP_FA_MIMO_flag
                0x00000000002052dc                pReg_ALC_Addr
                0x000000000020539c                Reg_ALC_Addr
                0x00000000002053dc                Reg_CFR_flag
                0x00000000002053e8                Reg_DSP_FA_Common__Cnt
                0x00000000002053f0                Reg_Common_flag
 *fill*         0x0000000000205435        0x3 
 COMMON         0x0000000000205438       0x79 ./obj/comm.o
                0x0000000000205438                Jig_Data
                0x0000000000205454                m_fw_update
                0x0000000000205464                comm_info
 *fill*         0x00000000002054b1        0x3 
 COMMON         0x00000000002054b4       0x16 ./obj/comm_conf.o
                0x00000000002054b4                udp_port
 *fill*         0x00000000002054ca        0x2 
 COMMON         0x00000000002054cc   0x4058d8 ./obj/comm_lib.o
                0x00000000002054cc                comm_init
                0x0000000000205afc                comm_que
                0x00000000002c0c88                udp_rx_que
                0x00000000005ad310                UDP_Rx_Evt
                0x00000000005ad418                comm_tx_buff
                0x000000000060ac9c                Tx_Wait_Evt
 COMMON         0x000000000060ada4       0x14 ./obj/frame.o
                0x000000000060ada4                msg_id
 COMMON         0x000000000060adb8      0x11b ./obj/util.o
                0x000000000060adb8                m_ping_test
                0x000000000060aec0                m_NetFile
 *fill*         0x000000000060aed3        0x1 
 COMMON         0x000000000060aed4        0x8 ./obj/BT_Comm.o
                0x000000000060aed4                BT_mode_timer
 COMMON         0x000000000060aedc      0x37c ./obj/down_load.o
                0x000000000060aedc                zip_header
                0x000000000060af1c                info_PSU
                0x000000000060af24                info_FPGA
                0x000000000060af2c                code_image_idx
                0x000000000060af30                info_AMP
                0x000000000060af50                ftp_DN_file
                0x000000000060af90                info_Rcu
                0x000000000060af98                ftp_txf
                0x000000000060b1a8                zip_file_name
                0x000000000060b1c8                dn_version
                0x000000000060b1cc                m_ModVer
                0x000000000060b1f0                pre_DN_file_header
                0x000000000060b230                info_Dtu
                0x000000000060b238                ftp_dn_time
                0x000000000060b23c                sw_side
                0x000000000060b240                dn_wait
 COMMON         0x000000000060b258       0x94 ./obj/udp_comm.o
                0x000000000060b258                Ro_IP_Set_Req
                0x000000000060b25c                udp_pop_fd
                0x000000000060b288                m_AutoRpt_Info
                0x000000000060b2a4                m_Alm_Rpt_Info
                0x000000000060b2c0                udp_push_fd
 COMMON         0x000000000060b2ec      0x440 ./obj/lsh_udp_comm.o
                0x000000000060b2ec                m_LSH_Sts
 COMMON         0x000000000060b72c       0xd0 ./obj/auto_cofig_proc.o
                0x000000000060b72c                AufoConfigFlag
                0x000000000060b7e4                Send_CnM_SW_Noti_time
                0x000000000060b7ec                Send_Ip_Assign_Noti_time
                0x000000000060b7f4                Send_Init_Noti_time
 COMMON         0x000000000060b7fc     0x1320 ./obj/PAU_comm.o
                0x000000000060b7fc                m_PAU_C_Req
                0x000000000060b824                m_PAU_Ctrl
                0x000000000060b9a0                Rvs_Amp_SD
                0x000000000060b9a4                m_THRESH_Ctrl
                0x000000000060ba38                Rvs_Cnt_Off
                0x000000000060ba3c                AMP_Stby_Ctrl_Val
                0x000000000060ba40                Rvs_Amp_Off_rsn
                0x000000000060ba44                m_AutoDn
                0x000000000060ca78                PAU_Link_Fail_Co
                0x000000000060ca7c                Fwd_Amp_SD
                0x000000000060ca80                init
                0x000000000060ca84                Pau_Init_End
                0x000000000060ca88                hi_pwr_alarm
                0x000000000060ca8c                StdBy_Off_rsn
                0x000000000060ca90                AMP_Stby_Off_Req
                0x000000000060ca94                Fwd_Cnt_Off
                0x000000000060ca98                PAU_Info
                0x000000000060cb18                Fwd_Amp_Off_rsn
 COMMON         0x000000000060cb1c      0x495 ./obj/psu_comm.o
                0x000000000060cb1c                PSU_Link_Fail
                0x000000000060cb20                m_AutoDn_Psu
                0x000000000060cf2c                m_PSU
                0x000000000060cf8a                PSU_Link_Fail_Co
                0x000000000060cf8c                PSU_Info
                0x000000000060cfaf                PSU_Init_End
                0x000000000060cfb0                PSU_Comm_Cnt
 *fill*         0x000000000060cfb1        0x3 
 COMMON         0x000000000060cfb4       0x20 ./obj/alarm.o
                0x000000000060cfb4                Is_RU_Time_Sync
                0x000000000060cfb5                AC_Fail_TEST_PAU0_RST_PIN_Toggle_Count
                0x000000000060cfb8                Alarm_JIG_Timer
                0x000000000060cfc0                BlueT_Terminal
                0x000000000060cfc1                rcu_reset_req
                0x000000000060cfc2                Local_Terminal
                0x000000000060cfc4                Local_Terminal_time
                0x000000000060cfcc                BT_Re_Init_Timer
 COMMON         0x000000000060cfd4       0xfc ./obj/algorithm_rf.o
                0x000000000060cfd4                AC_Fail_St
                0x000000000060cfd8                AMP_Stby_Bk_AMP_St
                0x000000000060cfdc                g_Timer
                0x000000000060d09c                Mimo_Stdby_Mode_St
                0x000000000060d0a0                AMP_Stby_Bk_RVS_AMP_St
                0x000000000060d0a4                AC_Fail_Timer_ms
                0x000000000060d0ac                AC_Extension_St
                0x000000000060d0b0                Mimo_Stby_Ctrl_Req
                0x000000000060d0b4                AC_Fail_Ctrl_Req
                0x000000000060d0b8                Mimo_Stby_Ctrl_Val
                0x000000000060d0bc                AMP_Stdby_Mode_St_Sum
                0x000000000060d0c0                Mimo_Stby_Bk_AMP_St
                0x000000000060d0c4                AMP_PROC_Start_Timer_ms
                0x000000000060d0cc                AC_Fail_Bk_ATT_x2
 COMMON         0x000000000060d0d0     0x21be ./obj/protocol.o
                0x000000000060d0d0                Hidden_AID_idx
                0x000000000060d8a0                RU_ARM_SUPP
                0x000000000060d8bc                GUI_ST_AID_idx
                0x000000000060e08c                LOG___AID_idx
                0x000000000060e09c                m_Task_Info
                0x000000000060e4d4                GUI_ST_AID_num
                0x000000000060e4d6                Tot_AID_Num
                0x000000000060e4d8                CFG__C_AID_num
                0x000000000060e4dc                CFG__C_AID_idx
                0x000000000060e8dc                Hidden_AID_num
                0x000000000060e8de                CFG_nC_AID_num
                0x000000000060e8e0                RHU_Inventory
                0x000000000060e9b4                Meas___AID_idx
                0x000000000060edb4                Meas___AID_num
                0x000000000060edb6                LOG___AID_num
                0x000000000060edb8                CFG_nC_AID_idx
                0x000000000060f1b8                Max_Task_Cnt
                0x000000000060f1bc                RHU_Inventory_Prev
 *fill*         0x000000000060f28e        0x2 
 COMMON         0x000000000060f290       0x1d ./obj/control.o
                0x000000000060f290                aid_user_ctrl
                0x000000000060f294                Ctrl_Sem
                0x000000000060f2ac                User_Ctrl_Req
 *fill*         0x000000000060f2ad        0x3 
 COMMON         0x000000000060f2b0     0x776c ./obj/FPGA_Reg.o
                0x000000000060f2b0                AAU_T_Pattern_Alpha_q_x_gain
                0x00000000006102b0                m_Reg_Sts
                0x000000000061150c                AAU_T_Pattern_100q_x_gain
                0x000000000061250c                m_Reg_Flg
                0x0000000000613768                CPRI_Mscl_Val
                0x0000000000613770                AAU_T_Pattern_100i_x_gain
                0x0000000000614770                AAU_T_Pattern_Alpha_i_x_gain
                0x0000000000615770                Test_timer
                0x0000000000615778                m_Reg_Ctl
                0x00000000006169d4                RF_Att_Accuracy_x4
                0x00000000006169dc                Reg_Ready_Flag
                0x00000000006169e0                CPRI_Lock_Val
                0x00000000006169e4                f_DTU_Path_OnOff
                0x00000000006169f4                Test_timer_Vss
                0x00000000006169fc                cpri_alm_remain_time
                0x0000000000616a04                DTU_Reg_Link_Fail
                0x0000000000616a08                m_Dtu_Reg
                0x0000000000616a14                cpri_alm_disp_time
 COMMON         0x0000000000616a1c      0x43c ./obj/dtu_udp_comm.o
                0x0000000000616a1c                m_DTU_AutoDn
                0x0000000000616a3c                m_dn_data
                0x0000000000616e38                m_FPGA_AutoDn
 COMMON         0x0000000000616e58       0x60 ./obj/inventory.o
                0x0000000000616e58                Inv_rd_en_timer
                0x0000000000616e78                inv_r
                0x0000000000616e98                inv
 COMMON         0x0000000000616eb8     0xf29f ./obj/nms_alarm.o
                0x0000000000616eb8                alarm_rpt_pause_req
                0x0000000000616ebc                Auto_Wr__Log
                0x0000000000619680                Auto_Rep_Pkt_Seq
                0x0000000000619682                alarm_rpt_pause_req_Type
                0x0000000000619684                ARM_REP_PKT_Ro
                0x0000000000619a78                NMS_Alarm_Timer
                0x0000000000619a80                Auto_Rep_Pkt
                0x0000000000626154                Auto_Wr__Log_Seq
                0x0000000000626156                NMS_Alarm_En
 *fill*         0x0000000000626157        0x1 
 COMMON         0x0000000000626158       0xb0 ./obj/SIM.o
                0x0000000000626158                SIM_Auto_Install_Set_Req
                0x0000000000626159                SIM_Auto_ID_Set_Req
                0x000000000062615c                m_Sim
                0x0000000000626200                SIM_task_req_timer
 COMMON         0x0000000000626208        0x4 ./obj/uda_proc.o
                0x0000000000626208                auto_rst_req
 COMMON         0x000000000062620c     0xadec ./obj/rems.o
                0x000000000062620c                m_Stat
                0x0000000000626f54                m_REMS_Env
                0x0000000000626f58                gRemsRspPkt_1k_Spectrum
                0x0000000000629780                gRemsRspPkt_1k
                0x000000000062bfa8                gRemsRspPkt_1k_CFnC
                0x000000000062e7d0                gRemsRspPkt_1k_Mea
                0x0000000000630ff8                . = ALIGN ((. != 0x0)?0x4:0x1)
                0x0000000000630ff8                _bss_end__ = .
                0x0000000000630ff8                __bss_end__ = .
                0x0000000000630ff8                . = ALIGN (0x4)
                0x0000000000630ff8                . = SEGMENT_START ("ldata-segment", .)
                0x0000000000630ff8                . = ALIGN (0x4)
                0x0000000000630ff8                __end__ = .
                0x0000000000630ff8                _end = .
                [!provide]                        PROVIDE (end, .)
                0x0000000000630ff8                . = DATA_SEGMENT_END (.)

.stab
 *(.stab)

.stabstr
 *(.stabstr)

.stab.excl
 *(.stab.excl)

.stab.exclstr
 *(.stab.exclstr)

.stab.index
 *(.stab.index)

.stab.indexstr
 *(.stab.indexstr)

.comment        0x0000000000000000       0x11
 *(.comment)
 .comment       0x0000000000000000       0x11 /opt/poky/2.2.1/sysroots/cortexa8hf-neon-poky-linux-gnueabi/usr/lib/crt1.o
                                         0x12 (size before relaxing)
 .comment       0x0000000000000011       0x12 /opt/poky/2.2.1/sysroots/cortexa8hf-neon-poky-linux-gnueabi/usr/lib/arm-poky-linux-gnueabi/6.2.0/crtbegin.o
 .comment       0x0000000000000011       0x12 ./obj/main.o
 .comment       0x0000000000000011       0x12 ./obj/cli.o
 .comment       0x0000000000000011       0x12 ./obj/up_com.o
 .comment       0x0000000000000011       0x12 ./obj/comm.o
 .comment       0x0000000000000011       0x12 ./obj/comm_conf.o
 .comment       0x0000000000000011       0x12 ./obj/comm_lib.o
 .comment       0x0000000000000011       0x12 ./obj/Debug_Lib.o
 .comment       0x0000000000000011       0x12 ./obj/frame.o
 .comment       0x0000000000000011       0x12 ./obj/crc.o
 .comment       0x0000000000000011       0x12 ./obj/util.o
 .comment       0x0000000000000011       0x12 ./obj/os_util.o
 .comment       0x0000000000000011       0x12 ./obj/devicelib.o
 .comment       0x0000000000000011       0x12 ./obj/BT_Comm.o
 .comment       0x0000000000000011       0x12 ./obj/down_load.o
 .comment       0x0000000000000011       0x12 ./obj/eep_emul.o
 .comment       0x0000000000000011       0x12 ./obj/udp_comm.o
 .comment       0x0000000000000011       0x12 ./obj/lo_host_comm.o
 .comment       0x0000000000000011       0x12 ./obj/lsh_udp_comm.o
 .comment       0x0000000000000011       0x12 ./obj/auto_cofig_proc.o
 .comment       0x0000000000000011       0x12 ./obj/a_pru_mmap_proc.o
 .comment       0x0000000000000011       0x12 ./obj/PAU_comm.o
 .comment       0x0000000000000011       0x12 ./obj/psu_comm.o
 .comment       0x0000000000000011       0x12 ./obj/alarm.o
 .comment       0x0000000000000011       0x12 ./obj/algorithm_rf.o
 .comment       0x0000000000000011       0x12 ./obj/protocol.o
 .comment       0x0000000000000011       0x12 ./obj/control.o
 .comment       0x0000000000000011       0x12 ./obj/spi.o
 .comment       0x0000000000000011       0x12 ./obj/FPGA_Reg.o
 .comment       0x0000000000000011       0x12 ./obj/temp_ic.o
 .comment       0x0000000000000011       0x12 ./obj/dtu_udp_comm.o
 .comment       0x0000000000000011       0x12 ./obj/inventory.o
 .comment       0x0000000000000011       0x12 ./obj/nms_alarm.o
 .comment       0x0000000000000011       0x12 ./obj/log_file.o
 .comment       0x0000000000000011       0x12 ./obj/i2c_dev.o
 .comment       0x0000000000000011       0x12 ./obj/log_reset.o
 .comment       0x0000000000000011       0x12 ./obj/log_event.o
 .comment       0x0000000000000011       0x12 ./obj/SIM.o
 .comment       0x0000000000000011       0x12 ./obj/ADC_ic.o
 .comment       0x0000000000000011       0x12 ./obj/uda_proc.o
 .comment       0x0000000000000011       0x12 ./obj/pru_dpd.o
 .comment       0x0000000000000011       0x12 ./obj/rems.o
 .comment       0x0000000000000011       0x12 ./obj/spectrum.o
 .comment       0x0000000000000011       0x12 /opt/poky/2.2.1/sysroots/cortexa8hf-neon-poky-linux-gnueabi/usr/lib/arm-poky-linux-gnueabi/6.2.0/libgcc.a(_udivmoddi4.o)
 .comment       0x0000000000000011       0x12 /opt/poky/2.2.1/sysroots/cortexa8hf-neon-poky-linux-gnueabi/usr/lib/libc_nonshared.a(elf-init.oS)
 .comment       0x0000000000000011       0x12 /opt/poky/2.2.1/sysroots/cortexa8hf-neon-poky-linux-gnueabi/usr/lib/arm-poky-linux-gnueabi/6.2.0/crtend.o

.ARM.attributes
                0x0000000000000000       0x3d
 .ARM.attributes
                0x0000000000000000       0x3d /opt/poky/2.2.1/sysroots/cortexa8hf-neon-poky-linux-gnueabi/usr/lib/crt1.o
 .ARM.attributes
                0x000000000000003d       0x2d /opt/poky/2.2.1/sysroots/cortexa8hf-neon-poky-linux-gnueabi/usr/lib/crti.o
 .ARM.attributes
                0x000000000000006a       0x3d /opt/poky/2.2.1/sysroots/cortexa8hf-neon-poky-linux-gnueabi/usr/lib/arm-poky-linux-gnueabi/6.2.0/crtbegin.o
 .ARM.attributes
                0x00000000000000a7       0x3d ./obj/main.o
 .ARM.attributes
                0x00000000000000e4       0x3d ./obj/cli.o
 .ARM.attributes
                0x0000000000000121       0x3d ./obj/up_com.o
 .ARM.attributes
                0x000000000000015e       0x3d ./obj/comm.o
 .ARM.attributes
                0x000000000000019b       0x3d ./obj/comm_conf.o
 .ARM.attributes
                0x00000000000001d8       0x3d ./obj/comm_lib.o
 .ARM.attributes
                0x0000000000000215       0x3d ./obj/Debug_Lib.o
 .ARM.attributes
                0x0000000000000252       0x3d ./obj/frame.o
 .ARM.attributes
                0x000000000000028f       0x3d ./obj/crc.o
 .ARM.attributes
                0x00000000000002cc       0x3d ./obj/util.o
 .ARM.attributes
                0x0000000000000309       0x3d ./obj/os_util.o
 .ARM.attributes
                0x0000000000000346       0x3d ./obj/devicelib.o
 .ARM.attributes
                0x0000000000000383       0x3d ./obj/BT_Comm.o
 .ARM.attributes
                0x00000000000003c0       0x3d ./obj/down_load.o
 .ARM.attributes
                0x00000000000003fd       0x3d ./obj/eep_emul.o
 .ARM.attributes
                0x000000000000043a       0x3d ./obj/udp_comm.o
 .ARM.attributes
                0x0000000000000477       0x3d ./obj/lo_host_comm.o
 .ARM.attributes
                0x00000000000004b4       0x3d ./obj/lsh_udp_comm.o
 .ARM.attributes
                0x00000000000004f1       0x3d ./obj/auto_cofig_proc.o
 .ARM.attributes
                0x000000000000052e       0x3d ./obj/a_pru_mmap_proc.o
 .ARM.attributes
                0x000000000000056b       0x3d ./obj/PAU_comm.o
 .ARM.attributes
                0x00000000000005a8       0x3d ./obj/psu_comm.o
 .ARM.attributes
                0x00000000000005e5       0x3d ./obj/alarm.o
 .ARM.attributes
                0x0000000000000622       0x3d ./obj/algorithm_rf.o
 .ARM.attributes
                0x000000000000065f       0x3d ./obj/protocol.o
 .ARM.attributes
                0x000000000000069c       0x3d ./obj/control.o
 .ARM.attributes
                0x00000000000006d9       0x3d ./obj/spi.o
 .ARM.attributes
                0x0000000000000716       0x3d ./obj/FPGA_Reg.o
 .ARM.attributes
                0x0000000000000753       0x3d ./obj/temp_ic.o
 .ARM.attributes
                0x0000000000000790       0x3d ./obj/dtu_udp_comm.o
 .ARM.attributes
                0x00000000000007cd       0x3d ./obj/inventory.o
 .ARM.attributes
                0x000000000000080a       0x3d ./obj/nms_alarm.o
 .ARM.attributes
                0x0000000000000847       0x3d ./obj/log_file.o
 .ARM.attributes
                0x0000000000000884       0x3d ./obj/i2c_dev.o
 .ARM.attributes
                0x00000000000008c1       0x3d ./obj/log_reset.o
 .ARM.attributes
                0x00000000000008fe       0x3d ./obj/log_event.o
 .ARM.attributes
                0x000000000000093b       0x3d ./obj/SIM.o
 .ARM.attributes
                0x0000000000000978       0x3d ./obj/ADC_ic.o
 .ARM.attributes
                0x00000000000009b5       0x3d ./obj/uda_proc.o
 .ARM.attributes
                0x00000000000009f2       0x3d ./obj/pru_dpd.o
 .ARM.attributes
                0x0000000000000a2f       0x3d ./obj/rems.o
 .ARM.attributes
                0x0000000000000a6c       0x3d ./obj/spectrum.o
 .ARM.attributes
                0x0000000000000aa9       0x2b /opt/poky/2.2.1/sysroots/cortexa8hf-neon-poky-linux-gnueabi/usr/lib/arm-poky-linux-gnueabi/6.2.0/libgcc.a(_udivsi3.o)
 .ARM.attributes
                0x0000000000000ad4       0x2b /opt/poky/2.2.1/sysroots/cortexa8hf-neon-poky-linux-gnueabi/usr/lib/arm-poky-linux-gnueabi/6.2.0/libgcc.a(_divsi3.o)
 .ARM.attributes
                0x0000000000000aff       0x2b /opt/poky/2.2.1/sysroots/cortexa8hf-neon-poky-linux-gnueabi/usr/lib/arm-poky-linux-gnueabi/6.2.0/libgcc.a(_aeabi_ldivmod.o)
 .ARM.attributes
                0x0000000000000b2a       0x2b /opt/poky/2.2.1/sysroots/cortexa8hf-neon-poky-linux-gnueabi/usr/lib/arm-poky-linux-gnueabi/6.2.0/libgcc.a(_dvmd_lnx.o)
 .ARM.attributes
                0x0000000000000b55       0x3d /opt/poky/2.2.1/sysroots/cortexa8hf-neon-poky-linux-gnueabi/usr/lib/arm-poky-linux-gnueabi/6.2.0/libgcc.a(_udivmoddi4.o)
 .ARM.attributes
                0x0000000000000b92       0x3f /opt/poky/2.2.1/sysroots/cortexa8hf-neon-poky-linux-gnueabi/usr/lib/libc_nonshared.a(elf-init.oS)
 .ARM.attributes
                0x0000000000000bd1       0x3d /opt/poky/2.2.1/sysroots/cortexa8hf-neon-poky-linux-gnueabi/usr/lib/arm-poky-linux-gnueabi/6.2.0/crtend.o
 .ARM.attributes
                0x0000000000000c0e       0x2d /opt/poky/2.2.1/sysroots/cortexa8hf-neon-poky-linux-gnueabi/usr/lib/crtn.o

.debug
 *(.debug)

.line
 *(.line)

.debug_srcinfo
 *(.debug_srcinfo)

.debug_sfnames
 *(.debug_sfnames)

.debug_aranges  0x0000000000000000      0x688
 *(.debug_aranges)
 .debug_aranges
                0x0000000000000000       0x38 /opt/poky/2.2.1/sysroots/cortexa8hf-neon-poky-linux-gnueabi/usr/lib/crt1.o
 .debug_aranges
                0x0000000000000038       0x30 /opt/poky/2.2.1/sysroots/cortexa8hf-neon-poky-linux-gnueabi/usr/lib/crti.o
 .debug_aranges
                0x0000000000000068       0x28 ./obj/main.o
 .debug_aranges
                0x0000000000000090       0x20 ./obj/cli.o
 .debug_aranges
                0x00000000000000b0       0x20 ./obj/up_com.o
 .debug_aranges
                0x00000000000000d0       0x20 ./obj/comm.o
 .debug_aranges
                0x00000000000000f0       0x20 ./obj/comm_conf.o
 .debug_aranges
                0x0000000000000110       0x20 ./obj/comm_lib.o
 .debug_aranges
                0x0000000000000130       0x20 ./obj/Debug_Lib.o
 .debug_aranges
                0x0000000000000150       0x20 ./obj/frame.o
 .debug_aranges
                0x0000000000000170       0x20 ./obj/crc.o
 .debug_aranges
                0x0000000000000190       0x20 ./obj/util.o
 .debug_aranges
                0x00000000000001b0       0x20 ./obj/os_util.o
 .debug_aranges
                0x00000000000001d0       0x20 ./obj/devicelib.o
 .debug_aranges
                0x00000000000001f0       0x20 ./obj/BT_Comm.o
 .debug_aranges
                0x0000000000000210       0x20 ./obj/down_load.o
 .debug_aranges
                0x0000000000000230       0x20 ./obj/eep_emul.o
 .debug_aranges
                0x0000000000000250       0x20 ./obj/udp_comm.o
 .debug_aranges
                0x0000000000000270       0x20 ./obj/lo_host_comm.o
 .debug_aranges
                0x0000000000000290       0x20 ./obj/lsh_udp_comm.o
 .debug_aranges
                0x00000000000002b0       0x20 ./obj/auto_cofig_proc.o
 .debug_aranges
                0x00000000000002d0       0x18 ./obj/a_pru_mmap_proc.o
 .debug_aranges
                0x00000000000002e8       0x20 ./obj/PAU_comm.o
 .debug_aranges
                0x0000000000000308       0x20 ./obj/psu_comm.o
 .debug_aranges
                0x0000000000000328       0x20 ./obj/alarm.o
 .debug_aranges
                0x0000000000000348       0x20 ./obj/algorithm_rf.o
 .debug_aranges
                0x0000000000000368       0x20 ./obj/protocol.o
 .debug_aranges
                0x0000000000000388       0x20 ./obj/control.o
 .debug_aranges
                0x00000000000003a8       0x20 ./obj/spi.o
 .debug_aranges
                0x00000000000003c8       0x20 ./obj/FPGA_Reg.o
 .debug_aranges
                0x00000000000003e8       0x20 ./obj/temp_ic.o
 .debug_aranges
                0x0000000000000408       0x20 ./obj/dtu_udp_comm.o
 .debug_aranges
                0x0000000000000428       0x20 ./obj/inventory.o
 .debug_aranges
                0x0000000000000448       0x20 ./obj/nms_alarm.o
 .debug_aranges
                0x0000000000000468       0x20 ./obj/log_file.o
 .debug_aranges
                0x0000000000000488       0x20 ./obj/i2c_dev.o
 .debug_aranges
                0x00000000000004a8       0x20 ./obj/log_reset.o
 .debug_aranges
                0x00000000000004c8       0x20 ./obj/log_event.o
 .debug_aranges
                0x00000000000004e8       0x20 ./obj/SIM.o
 .debug_aranges
                0x0000000000000508       0x20 ./obj/ADC_ic.o
 .debug_aranges
                0x0000000000000528       0x20 ./obj/uda_proc.o
 .debug_aranges
                0x0000000000000548       0x18 ./obj/pru_dpd.o
 .debug_aranges
                0x0000000000000560       0x20 ./obj/rems.o
 .debug_aranges
                0x0000000000000580       0x20 ./obj/spectrum.o
 .debug_aranges
                0x00000000000005a0       0x20 /opt/poky/2.2.1/sysroots/cortexa8hf-neon-poky-linux-gnueabi/usr/lib/arm-poky-linux-gnueabi/6.2.0/libgcc.a(_udivsi3.o)
 .debug_aranges
                0x00000000000005c0       0x20 /opt/poky/2.2.1/sysroots/cortexa8hf-neon-poky-linux-gnueabi/usr/lib/arm-poky-linux-gnueabi/6.2.0/libgcc.a(_divsi3.o)
 .debug_aranges
                0x00000000000005e0       0x20 /opt/poky/2.2.1/sysroots/cortexa8hf-neon-poky-linux-gnueabi/usr/lib/arm-poky-linux-gnueabi/6.2.0/libgcc.a(_aeabi_ldivmod.o)
 .debug_aranges
                0x0000000000000600       0x20 /opt/poky/2.2.1/sysroots/cortexa8hf-neon-poky-linux-gnueabi/usr/lib/arm-poky-linux-gnueabi/6.2.0/libgcc.a(_dvmd_lnx.o)
 .debug_aranges
                0x0000000000000620       0x20 /opt/poky/2.2.1/sysroots/cortexa8hf-neon-poky-linux-gnueabi/usr/lib/arm-poky-linux-gnueabi/6.2.0/libgcc.a(_udivmoddi4.o)
 .debug_aranges
                0x0000000000000640       0x20 /opt/poky/2.2.1/sysroots/cortexa8hf-neon-poky-linux-gnueabi/usr/lib/libc_nonshared.a(elf-init.oS)
 .debug_aranges
                0x0000000000000660       0x28 /opt/poky/2.2.1/sysroots/cortexa8hf-neon-poky-linux-gnueabi/usr/lib/crtn.o

.debug_pubnames
 *(.debug_pubnames)

.debug_info     0x0000000000000000   0x20a818
 *(.debug_info .gnu.linkonce.wi.*)
 .debug_info    0x0000000000000000       0xec /opt/poky/2.2.1/sysroots/cortexa8hf-neon-poky-linux-gnueabi/usr/lib/crt1.o
 .debug_info    0x00000000000000ec       0x5f /opt/poky/2.2.1/sysroots/cortexa8hf-neon-poky-linux-gnueabi/usr/lib/crti.o
 .debug_info    0x000000000000014b     0xb90f ./obj/main.o
 .debug_info    0x000000000000ba5a     0xaba3 ./obj/cli.o
 .debug_info    0x00000000000165fd     0xa6e7 ./obj/up_com.o
 .debug_info    0x0000000000020ce4     0xd2f6 ./obj/comm.o
 .debug_info    0x000000000002dfda     0xaa9d ./obj/comm_conf.o
 .debug_info    0x0000000000038a77     0xcf4a ./obj/comm_lib.o
 .debug_info    0x00000000000459c1     0xb4dd ./obj/Debug_Lib.o
 .debug_info    0x0000000000050e9e     0xb0d5 ./obj/frame.o
 .debug_info    0x000000000005bf73     0xa534 ./obj/crc.o
 .debug_info    0x00000000000664a7     0xe6f0 ./obj/util.o
 .debug_info    0x0000000000074b97     0xa727 ./obj/os_util.o
 .debug_info    0x000000000007f2be     0xab92 ./obj/devicelib.o
 .debug_info    0x0000000000089e50     0xa8db ./obj/BT_Comm.o
 .debug_info    0x000000000009472b    0x10a06 ./obj/down_load.o
 .debug_info    0x00000000000a5131     0xb26a ./obj/eep_emul.o
 .debug_info    0x00000000000b039b     0xb608 ./obj/udp_comm.o
 .debug_info    0x00000000000bb9a3     0xa559 ./obj/lo_host_comm.o
 .debug_info    0x00000000000c5efc     0xfed6 ./obj/lsh_udp_comm.o
 .debug_info    0x00000000000d5dd2     0xc841 ./obj/auto_cofig_proc.o
 .debug_info    0x00000000000e2613     0xa3f5 ./obj/a_pru_mmap_proc.o
 .debug_info    0x00000000000eca08     0xd4c9 ./obj/PAU_comm.o
 .debug_info    0x00000000000f9ed1     0xc411 ./obj/psu_comm.o
 .debug_info    0x00000000001062e2     0xcb98 ./obj/alarm.o
 .debug_info    0x0000000000112e7a     0xcccd ./obj/algorithm_rf.o
 .debug_info    0x000000000011fb47     0xf341 ./obj/protocol.o
 .debug_info    0x000000000012ee88    0x10b5d ./obj/control.o
 .debug_info    0x000000000013f9e5     0xaa6f ./obj/spi.o
 .debug_info    0x000000000014a454    0x1b525 ./obj/FPGA_Reg.o
 .debug_info    0x0000000000165979     0xa5c8 ./obj/temp_ic.o
 .debug_info    0x000000000016ff41     0xa915 ./obj/dtu_udp_comm.o
 .debug_info    0x000000000017a856     0xacba ./obj/inventory.o
 .debug_info    0x0000000000185510     0xcce5 ./obj/nms_alarm.o
 .debug_info    0x00000000001921f5     0xf583 ./obj/log_file.o
 .debug_info    0x00000000001a1778     0xabbc ./obj/i2c_dev.o
 .debug_info    0x00000000001ac334     0xb84a ./obj/log_reset.o
 .debug_info    0x00000000001b7b7e     0xb829 ./obj/log_event.o
 .debug_info    0x00000000001c33a7     0xa976 ./obj/SIM.o
 .debug_info    0x00000000001cdd1d     0xa7d9 ./obj/ADC_ic.o
 .debug_info    0x00000000001d84f6     0xc50f ./obj/uda_proc.o
 .debug_info    0x00000000001e4a05     0xa3f5 ./obj/pru_dpd.o
 .debug_info    0x00000000001eedfa     0xec64 ./obj/rems.o
 .debug_info    0x00000000001fda5e     0xbbcf ./obj/spectrum.o
 .debug_info    0x000000000020962d       0xe2 /opt/poky/2.2.1/sysroots/cortexa8hf-neon-poky-linux-gnueabi/usr/lib/arm-poky-linux-gnueabi/6.2.0/libgcc.a(_udivsi3.o)
 .debug_info    0x000000000020970f       0xe2 /opt/poky/2.2.1/sysroots/cortexa8hf-neon-poky-linux-gnueabi/usr/lib/arm-poky-linux-gnueabi/6.2.0/libgcc.a(_divsi3.o)
 .debug_info    0x00000000002097f1       0xde /opt/poky/2.2.1/sysroots/cortexa8hf-neon-poky-linux-gnueabi/usr/lib/arm-poky-linux-gnueabi/6.2.0/libgcc.a(_aeabi_ldivmod.o)
 .debug_info    0x00000000002098cf       0xe2 /opt/poky/2.2.1/sysroots/cortexa8hf-neon-poky-linux-gnueabi/usr/lib/arm-poky-linux-gnueabi/6.2.0/libgcc.a(_dvmd_lnx.o)
 .debug_info    0x00000000002099b1      0xc7f /opt/poky/2.2.1/sysroots/cortexa8hf-neon-poky-linux-gnueabi/usr/lib/arm-poky-linux-gnueabi/6.2.0/libgcc.a(_udivmoddi4.o)
 .debug_info    0x000000000020a630      0x189 /opt/poky/2.2.1/sysroots/cortexa8hf-neon-poky-linux-gnueabi/usr/lib/libc_nonshared.a(elf-init.oS)
 .debug_info    0x000000000020a7b9       0x5f /opt/poky/2.2.1/sysroots/cortexa8hf-neon-poky-linux-gnueabi/usr/lib/crtn.o

.debug_abbrev   0x0000000000000000     0xda62
 *(.debug_abbrev)
 .debug_abbrev  0x0000000000000000       0x52 /opt/poky/2.2.1/sysroots/cortexa8hf-neon-poky-linux-gnueabi/usr/lib/crt1.o
 .debug_abbrev  0x0000000000000052       0x12 /opt/poky/2.2.1/sysroots/cortexa8hf-neon-poky-linux-gnueabi/usr/lib/crti.o
 .debug_abbrev  0x0000000000000064      0x535 ./obj/main.o
 .debug_abbrev  0x0000000000000599      0x4f0 ./obj/cli.o
 .debug_abbrev  0x0000000000000a89      0x374 ./obj/up_com.o
 .debug_abbrev  0x0000000000000dfd      0x66f ./obj/comm.o
 .debug_abbrev  0x000000000000146c      0x463 ./obj/comm_conf.o
 .debug_abbrev  0x00000000000018cf      0x5da ./obj/comm_lib.o
 .debug_abbrev  0x0000000000001ea9      0x51e ./obj/Debug_Lib.o
 .debug_abbrev  0x00000000000023c7      0x4c4 ./obj/frame.o
 .debug_abbrev  0x000000000000288b      0x34c ./obj/crc.o
 .debug_abbrev  0x0000000000002bd7      0x674 ./obj/util.o
 .debug_abbrev  0x000000000000324b      0x3c9 ./obj/os_util.o
 .debug_abbrev  0x0000000000003614      0x4d8 ./obj/devicelib.o
 .debug_abbrev  0x0000000000003aec      0x410 ./obj/BT_Comm.o
 .debug_abbrev  0x0000000000003efc      0x5b7 ./obj/down_load.o
 .debug_abbrev  0x00000000000044b3      0x41b ./obj/eep_emul.o
 .debug_abbrev  0x00000000000048ce      0x549 ./obj/udp_comm.o
 .debug_abbrev  0x0000000000004e17      0x3a5 ./obj/lo_host_comm.o
 .debug_abbrev  0x00000000000051bc      0x5db ./obj/lsh_udp_comm.o
 .debug_abbrev  0x0000000000005797      0x5ff ./obj/auto_cofig_proc.o
 .debug_abbrev  0x0000000000005d96      0x2c7 ./obj/a_pru_mmap_proc.o
 .debug_abbrev  0x000000000000605d      0x5d9 ./obj/PAU_comm.o
 .debug_abbrev  0x0000000000006636      0x67d ./obj/psu_comm.o
 .debug_abbrev  0x0000000000006cb3      0x5eb ./obj/alarm.o
 .debug_abbrev  0x000000000000729e      0x64a ./obj/algorithm_rf.o
 .debug_abbrev  0x00000000000078e8      0x582 ./obj/protocol.o
 .debug_abbrev  0x0000000000007e6a      0x69a ./obj/control.o
 .debug_abbrev  0x0000000000008504      0x4bb ./obj/spi.o
 .debug_abbrev  0x00000000000089bf      0x715 ./obj/FPGA_Reg.o
 .debug_abbrev  0x00000000000090d4      0x3be ./obj/temp_ic.o
 .debug_abbrev  0x0000000000009492      0x3eb ./obj/dtu_udp_comm.o
 .debug_abbrev  0x000000000000987d      0x5ea ./obj/inventory.o
 .debug_abbrev  0x0000000000009e67      0x621 ./obj/nms_alarm.o
 .debug_abbrev  0x000000000000a488      0x665 ./obj/log_file.o
 .debug_abbrev  0x000000000000aaed      0x4c8 ./obj/i2c_dev.o
 .debug_abbrev  0x000000000000afb5      0x5b3 ./obj/log_reset.o
 .debug_abbrev  0x000000000000b568      0x5c0 ./obj/log_event.o
 .debug_abbrev  0x000000000000bb28      0x3b4 ./obj/SIM.o
 .debug_abbrev  0x000000000000bedc      0x45c ./obj/ADC_ic.o
 .debug_abbrev  0x000000000000c338      0x5c2 ./obj/uda_proc.o
 .debug_abbrev  0x000000000000c8fa      0x2c7 ./obj/pru_dpd.o
 .debug_abbrev  0x000000000000cbc1      0x682 ./obj/rems.o
 .debug_abbrev  0x000000000000d243      0x520 ./obj/spectrum.o
 .debug_abbrev  0x000000000000d763       0x14 /opt/poky/2.2.1/sysroots/cortexa8hf-neon-poky-linux-gnueabi/usr/lib/arm-poky-linux-gnueabi/6.2.0/libgcc.a(_udivsi3.o)
 .debug_abbrev  0x000000000000d777       0x14 /opt/poky/2.2.1/sysroots/cortexa8hf-neon-poky-linux-gnueabi/usr/lib/arm-poky-linux-gnueabi/6.2.0/libgcc.a(_divsi3.o)
 .debug_abbrev  0x000000000000d78b       0x14 /opt/poky/2.2.1/sysroots/cortexa8hf-neon-poky-linux-gnueabi/usr/lib/arm-poky-linux-gnueabi/6.2.0/libgcc.a(_aeabi_ldivmod.o)
 .debug_abbrev  0x000000000000d79f       0x14 /opt/poky/2.2.1/sysroots/cortexa8hf-neon-poky-linux-gnueabi/usr/lib/arm-poky-linux-gnueabi/6.2.0/libgcc.a(_dvmd_lnx.o)
 .debug_abbrev  0x000000000000d7b3      0x185 /opt/poky/2.2.1/sysroots/cortexa8hf-neon-poky-linux-gnueabi/usr/lib/arm-poky-linux-gnueabi/6.2.0/libgcc.a(_udivmoddi4.o)
 .debug_abbrev  0x000000000000d938      0x118 /opt/poky/2.2.1/sysroots/cortexa8hf-neon-poky-linux-gnueabi/usr/lib/libc_nonshared.a(elf-init.oS)
 .debug_abbrev  0x000000000000da50       0x12 /opt/poky/2.2.1/sysroots/cortexa8hf-neon-poky-linux-gnueabi/usr/lib/crtn.o

.debug_line     0x0000000000000000    0x1fa6f
 *(.debug_line .debug_line.* .debug_line_end)
 .debug_line    0x0000000000000000       0xa5 /opt/poky/2.2.1/sysroots/cortexa8hf-neon-poky-linux-gnueabi/usr/lib/crt1.o
 .debug_line    0x00000000000000a5       0x6c /opt/poky/2.2.1/sysroots/cortexa8hf-neon-poky-linux-gnueabi/usr/lib/crti.o
 .debug_line    0x0000000000000111      0x70e ./obj/main.o
 .debug_line    0x000000000000081f      0x512 ./obj/cli.o
 .debug_line    0x0000000000000d31      0x40c ./obj/up_com.o
 .debug_line    0x000000000000113d      0xb8e ./obj/comm.o
 .debug_line    0x0000000000001ccb      0x4a9 ./obj/comm_conf.o
 .debug_line    0x0000000000002174      0xc39 ./obj/comm_lib.o
 .debug_line    0x0000000000002dad      0x64e ./obj/Debug_Lib.o
 .debug_line    0x00000000000033fb      0x731 ./obj/frame.o
 .debug_line    0x0000000000003b2c      0x3db ./obj/crc.o
 .debug_line    0x0000000000003f07      0xc82 ./obj/util.o
 .debug_line    0x0000000000004b89      0x46f ./obj/os_util.o
 .debug_line    0x0000000000004ff8      0x594 ./obj/devicelib.o
 .debug_line    0x000000000000558c      0x490 ./obj/BT_Comm.o
 .debug_line    0x0000000000005a1c     0x10d7 ./obj/down_load.o
 .debug_line    0x0000000000006af3      0x57d ./obj/eep_emul.o
 .debug_line    0x0000000000007070      0x685 ./obj/udp_comm.o
 .debug_line    0x00000000000076f5      0x420 ./obj/lo_host_comm.o
 .debug_line    0x0000000000007b15     0x1ba4 ./obj/lsh_udp_comm.o
 .debug_line    0x00000000000096b9      0xb79 ./obj/auto_cofig_proc.o
 .debug_line    0x000000000000a232      0x3b3 ./obj/a_pru_mmap_proc.o
 .debug_line    0x000000000000a5e5      0xc0b ./obj/PAU_comm.o
 .debug_line    0x000000000000b1f0      0xa4d ./obj/psu_comm.o
 .debug_line    0x000000000000bc3d      0xede ./obj/alarm.o
 .debug_line    0x000000000000cb1b      0xbd6 ./obj/algorithm_rf.o
 .debug_line    0x000000000000d6f1     0x20ac ./obj/protocol.o
 .debug_line    0x000000000000f79d     0x2909 ./obj/control.o
 .debug_line    0x00000000000120a6      0x58c ./obj/spi.o
 .debug_line    0x0000000000012632     0x5d0a ./obj/FPGA_Reg.o
 .debug_line    0x000000000001833c      0x43a ./obj/temp_ic.o
 .debug_line    0x0000000000018776      0x4fc ./obj/dtu_udp_comm.o
 .debug_line    0x0000000000018c72      0x689 ./obj/inventory.o
 .debug_line    0x00000000000192fb      0xfaa ./obj/nms_alarm.o
 .debug_line    0x000000000001a2a5      0xd47 ./obj/log_file.o
 .debug_line    0x000000000001afec      0x548 ./obj/i2c_dev.o
 .debug_line    0x000000000001b534      0x5da ./obj/log_reset.o
 .debug_line    0x000000000001bb0e      0x5c7 ./obj/log_event.o
 .debug_line    0x000000000001c0d5      0x44e ./obj/SIM.o
 .debug_line    0x000000000001c523      0x465 ./obj/ADC_ic.o
 .debug_line    0x000000000001c988      0xac8 ./obj/uda_proc.o
 .debug_line    0x000000000001d450      0x3b3 ./obj/pru_dpd.o
 .debug_line    0x000000000001d803     0x137f ./obj/rems.o
 .debug_line    0x000000000001eb82      0x86a ./obj/spectrum.o
 .debug_line    0x000000000001f3ec       0xa3 /opt/poky/2.2.1/sysroots/cortexa8hf-neon-poky-linux-gnueabi/usr/lib/arm-poky-linux-gnueabi/6.2.0/libgcc.a(_udivsi3.o)
 .debug_line    0x000000000001f48f       0xaf /opt/poky/2.2.1/sysroots/cortexa8hf-neon-poky-linux-gnueabi/usr/lib/arm-poky-linux-gnueabi/6.2.0/libgcc.a(_divsi3.o)
 .debug_line    0x000000000001f53e       0xa4 /opt/poky/2.2.1/sysroots/cortexa8hf-neon-poky-linux-gnueabi/usr/lib/arm-poky-linux-gnueabi/6.2.0/libgcc.a(_aeabi_ldivmod.o)
 .debug_line    0x000000000001f5e2       0x8b /opt/poky/2.2.1/sysroots/cortexa8hf-neon-poky-linux-gnueabi/usr/lib/arm-poky-linux-gnueabi/6.2.0/libgcc.a(_dvmd_lnx.o)
 .debug_line    0x000000000001f66d      0x2bc /opt/poky/2.2.1/sysroots/cortexa8hf-neon-poky-linux-gnueabi/usr/lib/arm-poky-linux-gnueabi/6.2.0/libgcc.a(_udivmoddi4.o)
 .debug_line    0x000000000001f929       0xf2 /opt/poky/2.2.1/sysroots/cortexa8hf-neon-poky-linux-gnueabi/usr/lib/libc_nonshared.a(elf-init.oS)
 .debug_line    0x000000000001fa1b       0x54 /opt/poky/2.2.1/sysroots/cortexa8hf-neon-poky-linux-gnueabi/usr/lib/crtn.o

.debug_frame    0x0000000000000000     0xa3dc
 *(.debug_frame)
 .debug_frame   0x0000000000000000      0x170 ./obj/main.o
 .debug_frame   0x0000000000000170       0xb8 ./obj/cli.o
 .debug_frame   0x0000000000000228       0x2c ./obj/up_com.o
 .debug_frame   0x0000000000000254      0x5e8 ./obj/comm.o
 .debug_frame   0x000000000000083c      0x128 ./obj/comm_conf.o
 .debug_frame   0x0000000000000964      0x5d0 ./obj/comm_lib.o
 .debug_frame   0x0000000000000f34      0x2b8 ./obj/Debug_Lib.o
 .debug_frame   0x00000000000011ec      0x148 ./obj/frame.o
 .debug_frame   0x0000000000001334       0x40 ./obj/crc.o
 .debug_frame   0x0000000000001374      0xa10 ./obj/util.o
 .debug_frame   0x0000000000001d84       0xec ./obj/os_util.o
 .debug_frame   0x0000000000001e70      0x1c4 ./obj/devicelib.o
 .debug_frame   0x0000000000002034       0x6c ./obj/BT_Comm.o
 .debug_frame   0x00000000000020a0      0x92c ./obj/down_load.o
 .debug_frame   0x00000000000029cc      0x188 ./obj/eep_emul.o
 .debug_frame   0x0000000000002b54      0x1c0 ./obj/udp_comm.o
 .debug_frame   0x0000000000002d14       0x44 ./obj/lo_host_comm.o
 .debug_frame   0x0000000000002d58      0x558 ./obj/lsh_udp_comm.o
 .debug_frame   0x00000000000032b0      0x534 ./obj/auto_cofig_proc.o
 .debug_frame   0x00000000000037e4      0x7bc ./obj/PAU_comm.o
 .debug_frame   0x0000000000003fa0      0x508 ./obj/psu_comm.o
 .debug_frame   0x00000000000044a8      0x664 ./obj/alarm.o
 .debug_frame   0x0000000000004b0c      0x6b4 ./obj/algorithm_rf.o
 .debug_frame   0x00000000000051c0      0x714 ./obj/protocol.o
 .debug_frame   0x00000000000058d4      0xc68 ./obj/control.o
 .debug_frame   0x000000000000653c       0xd0 ./obj/spi.o
 .debug_frame   0x000000000000660c     0x1910 ./obj/FPGA_Reg.o
 .debug_frame   0x0000000000007f1c       0x5c ./obj/temp_ic.o
 .debug_frame   0x0000000000007f78       0xe4 ./obj/dtu_udp_comm.o
 .debug_frame   0x000000000000805c      0x224 ./obj/inventory.o
 .debug_frame   0x0000000000008280      0x448 ./obj/nms_alarm.o
 .debug_frame   0x00000000000086c8      0x7bc ./obj/log_file.o
 .debug_frame   0x0000000000008e84       0xb4 ./obj/i2c_dev.o
 .debug_frame   0x0000000000008f38      0x17c ./obj/log_reset.o
 .debug_frame   0x00000000000090b4      0x174 ./obj/log_event.o
 .debug_frame   0x0000000000009228       0x7c ./obj/SIM.o
 .debug_frame   0x00000000000092a4       0xa8 ./obj/ADC_ic.o
 .debug_frame   0x000000000000934c      0x37c ./obj/uda_proc.o
 .debug_frame   0x00000000000096c8      0xa24 ./obj/rems.o
 .debug_frame   0x000000000000a0ec      0x1d4 ./obj/spectrum.o
 .debug_frame   0x000000000000a2c0       0x20 /opt/poky/2.2.1/sysroots/cortexa8hf-neon-poky-linux-gnueabi/usr/lib/arm-poky-linux-gnueabi/6.2.0/libgcc.a(_udivsi3.o)
 .debug_frame   0x000000000000a2e0       0x20 /opt/poky/2.2.1/sysroots/cortexa8hf-neon-poky-linux-gnueabi/usr/lib/arm-poky-linux-gnueabi/6.2.0/libgcc.a(_divsi3.o)
 .debug_frame   0x000000000000a300       0x44 /opt/poky/2.2.1/sysroots/cortexa8hf-neon-poky-linux-gnueabi/usr/lib/arm-poky-linux-gnueabi/6.2.0/libgcc.a(_aeabi_ldivmod.o)
 .debug_frame   0x000000000000a344       0x28 /opt/poky/2.2.1/sysroots/cortexa8hf-neon-poky-linux-gnueabi/usr/lib/arm-poky-linux-gnueabi/6.2.0/libgcc.a(_dvmd_lnx.o)
 .debug_frame   0x000000000000a36c       0x2c /opt/poky/2.2.1/sysroots/cortexa8hf-neon-poky-linux-gnueabi/usr/lib/arm-poky-linux-gnueabi/6.2.0/libgcc.a(_udivmoddi4.o)
 .debug_frame   0x000000000000a398       0x44 /opt/poky/2.2.1/sysroots/cortexa8hf-neon-poky-linux-gnueabi/usr/lib/libc_nonshared.a(elf-init.oS)

.debug_str      0x0000000000000000    0x15c71
 *(.debug_str)
 .debug_str     0x0000000000000000      0x193 /opt/poky/2.2.1/sysroots/cortexa8hf-neon-poky-linux-gnueabi/usr/lib/crt1.o
                                        0x1cc (size before relaxing)
 .debug_str     0x0000000000000193     0x80b7 ./obj/main.o
                                       0x9346 (size before relaxing)
 .debug_str     0x000000000000824a      0x1e8 ./obj/cli.o
                                       0x8dbf (size before relaxing)
 .debug_str     0x0000000000008432       0x85 ./obj/up_com.o
                                       0x8c7d (size before relaxing)
 .debug_str     0x00000000000084b7     0x1021 ./obj/comm.o
                                       0x9d3a (size before relaxing)
 .debug_str     0x00000000000094d8      0x205 ./obj/comm_conf.o
                                       0x8e10 (size before relaxing)
 .debug_str     0x00000000000096dd      0x80b ./obj/comm_lib.o
                                       0x979b (size before relaxing)
 .debug_str     0x0000000000009ee8      0x294 ./obj/Debug_Lib.o
                                       0x8fc9 (size before relaxing)
 .debug_str     0x000000000000a17c      0x188 ./obj/frame.o
                                       0x8ea0 (size before relaxing)
 .debug_str     0x000000000000a304       0x3d ./obj/crc.o
                                       0x8bca (size before relaxing)
 .debug_str     0x000000000000a341      0xd09 ./obj/util.o
                                       0xa22b (size before relaxing)
 .debug_str     0x000000000000b04a       0xb0 ./obj/os_util.o
                                       0x8cde (size before relaxing)
 .debug_str     0x000000000000b0fa      0x1e4 ./obj/devicelib.o
                                       0x8e63 (size before relaxing)
 .debug_str     0x000000000000b2de      0x107 ./obj/BT_Comm.o
                                       0x8df7 (size before relaxing)
 .debug_str     0x000000000000b3e5      0xc18 ./obj/down_load.o
                                       0xa28c (size before relaxing)
 .debug_str     0x000000000000bffd       0xc4 ./obj/eep_emul.o
                                       0x8de9 (size before relaxing)
 .debug_str     0x000000000000c0c1      0x18b ./obj/udp_comm.o
                                       0x9009 (size before relaxing)
 .debug_str     0x000000000000c24c       0x5f ./obj/lo_host_comm.o
                                       0x8bf5 (size before relaxing)
 .debug_str     0x000000000000c2ab      0x8e5 ./obj/lsh_udp_comm.o
                                       0x97c6 (size before relaxing)
 .debug_str     0x000000000000cb90      0x65e ./obj/auto_cofig_proc.o
                                       0x94bc (size before relaxing)
 .debug_str     0x000000000000d1ee       0x16 ./obj/a_pru_mmap_proc.o
                                       0x8b8a (size before relaxing)
 .debug_str     0x000000000000d204      0xc57 ./obj/PAU_comm.o
                                       0x9c62 (size before relaxing)
 .debug_str     0x000000000000de5b      0x881 ./obj/psu_comm.o
                                       0x999e (size before relaxing)
 .debug_str     0x000000000000e6dc      0x8b3 ./obj/alarm.o
                                       0x998c (size before relaxing)
 .debug_str     0x000000000000ef8f      0x7ec ./obj/algorithm_rf.o
                                       0x983f (size before relaxing)
 .debug_str     0x000000000000f77b      0x6f7 ./obj/protocol.o
                                       0x94d4 (size before relaxing)
 .debug_str     0x000000000000fe72      0xc12 ./obj/control.o
                                       0xa4b6 (size before relaxing)
 .debug_str     0x0000000000010a84       0x98 ./obj/spi.o
                                       0x8d11 (size before relaxing)
 .debug_str     0x0000000000010b1c     0x1f0a ./obj/FPGA_Reg.o
                                       0xbdbe (size before relaxing)
 .debug_str     0x0000000000012a26       0x32 ./obj/temp_ic.o
                                       0x8c15 (size before relaxing)
 .debug_str     0x0000000000012a58       0xda ./obj/dtu_udp_comm.o
                                       0x8d57 (size before relaxing)
 .debug_str     0x0000000000012b32      0x1da ./obj/inventory.o
                                       0x8e6d (size before relaxing)
 .debug_str     0x0000000000012d0c      0x5db ./obj/nms_alarm.o
                                       0x9941 (size before relaxing)
 .debug_str     0x00000000000132e7      0x809 ./obj/log_file.o
                                       0x99ca (size before relaxing)
 .debug_str     0x0000000000013af0      0x126 ./obj/i2c_dev.o
                                       0x8d16 (size before relaxing)
 .debug_str     0x0000000000013c16      0x111 ./obj/log_reset.o
                                       0x8fd3 (size before relaxing)
 .debug_str     0x0000000000013d27      0x147 ./obj/log_event.o
                                       0x9010 (size before relaxing)
 .debug_str     0x0000000000013e6e       0x48 ./obj/SIM.o
                                       0x8d2f (size before relaxing)
 .debug_str     0x0000000000013eb6       0x7f ./obj/ADC_ic.o
                                       0x8c6d (size before relaxing)
 .debug_str     0x0000000000013f35      0x37b ./obj/uda_proc.o
                                       0x91a2 (size before relaxing)
 .debug_str     0x00000000000142b0        0xe ./obj/pru_dpd.o
                                       0x8b82 (size before relaxing)
 .debug_str     0x00000000000142be      0x8b4 ./obj/rems.o
                                       0x9e4a (size before relaxing)
 .debug_str     0x0000000000014b72      0x33d ./obj/spectrum.o
                                       0x94a3 (size before relaxing)
 .debug_str     0x0000000000014eaf      0xc1b /opt/poky/2.2.1/sysroots/cortexa8hf-neon-poky-linux-gnueabi/usr/lib/arm-poky-linux-gnueabi/6.2.0/libgcc.a(_udivmoddi4.o)
                                        0xf51 (size before relaxing)
 .debug_str     0x0000000000015aca      0x1a7 /opt/poky/2.2.1/sysroots/cortexa8hf-neon-poky-linux-gnueabi/usr/lib/libc_nonshared.a(elf-init.oS)
                                        0x214 (size before relaxing)

.debug_loc      0x0000000000000000    0x408a0
 *(.debug_loc)
 .debug_loc     0x0000000000000000      0x5bc ./obj/main.o
 .debug_loc     0x00000000000005bc      0x45f ./obj/cli.o
 .debug_loc     0x0000000000000a1b       0xa9 ./obj/up_com.o
 .debug_loc     0x0000000000000ac4     0x20f7 ./obj/comm.o
 .debug_loc     0x0000000000002bbb      0x304 ./obj/comm_conf.o
 .debug_loc     0x0000000000002ebf     0x1907 ./obj/comm_lib.o
 .debug_loc     0x00000000000047c6      0x64b ./obj/Debug_Lib.o
 .debug_loc     0x0000000000004e11      0x64d ./obj/frame.o
 .debug_loc     0x000000000000545e      0x293 ./obj/crc.o
 .debug_loc     0x00000000000056f1     0x22bd ./obj/util.o
 .debug_loc     0x00000000000079ae      0x261 ./obj/os_util.o
 .debug_loc     0x0000000000007c0f      0x312 ./obj/devicelib.o
 .debug_loc     0x0000000000007f21       0x97 ./obj/BT_Comm.o
 .debug_loc     0x0000000000007fb8     0x2819 ./obj/down_load.o
 .debug_loc     0x000000000000a7d1      0x502 ./obj/eep_emul.o
 .debug_loc     0x000000000000acd3      0x6f3 ./obj/udp_comm.o
 .debug_loc     0x000000000000b3c6      0x1aa ./obj/lo_host_comm.o
 .debug_loc     0x000000000000b570     0x2cd0 ./obj/lsh_udp_comm.o
 .debug_loc     0x000000000000e240      0xb46 ./obj/auto_cofig_proc.o
 .debug_loc     0x000000000000ed86     0x18c5 ./obj/PAU_comm.o
 .debug_loc     0x000000000001064b      0xe8b ./obj/psu_comm.o
 .debug_loc     0x00000000000114d6     0x1019 ./obj/alarm.o
 .debug_loc     0x00000000000124ef     0x13ba ./obj/algorithm_rf.o
 .debug_loc     0x00000000000138a9     0xa22a ./obj/protocol.o
 .debug_loc     0x000000000001dad3     0x8611 ./obj/control.o
 .debug_loc     0x00000000000260e4      0x2fc ./obj/spi.o
 .debug_loc     0x00000000000263e0     0xd25f ./obj/FPGA_Reg.o
 .debug_loc     0x000000000003363f       0x79 ./obj/temp_ic.o
 .debug_loc     0x00000000000336b8      0x426 ./obj/dtu_udp_comm.o
 .debug_loc     0x0000000000033ade      0x60c ./obj/inventory.o
 .debug_loc     0x00000000000340ea     0x2a7c ./obj/nms_alarm.o
 .debug_loc     0x0000000000036b66     0x227f ./obj/log_file.o
 .debug_loc     0x0000000000038de5      0x5a8 ./obj/i2c_dev.o
 .debug_loc     0x000000000003938d      0xd00 ./obj/log_reset.o
 .debug_loc     0x000000000003a08d      0xca5 ./obj/log_event.o
 .debug_loc     0x000000000003ad32      0x1dc ./obj/SIM.o
 .debug_loc     0x000000000003af0e      0x135 ./obj/ADC_ic.o
 .debug_loc     0x000000000003b043     0x16a5 ./obj/uda_proc.o
 .debug_loc     0x000000000003c6e8     0x2d69 ./obj/rems.o
 .debug_loc     0x000000000003f451     0x1138 ./obj/spectrum.o
 .debug_loc     0x0000000000040589      0x264 /opt/poky/2.2.1/sysroots/cortexa8hf-neon-poky-linux-gnueabi/usr/lib/arm-poky-linux-gnueabi/6.2.0/libgcc.a(_udivmoddi4.o)
 .debug_loc     0x00000000000407ed       0xb3 /opt/poky/2.2.1/sysroots/cortexa8hf-neon-poky-linux-gnueabi/usr/lib/libc_nonshared.a(elf-init.oS)

.debug_macinfo
 *(.debug_macinfo)

.debug_weaknames
 *(.debug_weaknames)

.debug_funcnames
 *(.debug_funcnames)

.debug_typenames
 *(.debug_typenames)

.debug_varnames
 *(.debug_varnames)

.debug_pubtypes
 *(.debug_pubtypes)

.debug_ranges   0x0000000000000000     0x77e8
 *(.debug_ranges)
 .debug_ranges  0x0000000000000000       0x28 /opt/poky/2.2.1/sysroots/cortexa8hf-neon-poky-linux-gnueabi/usr/lib/crti.o
 .debug_ranges  0x0000000000000028       0x18 ./obj/main.o
 .debug_ranges  0x0000000000000040       0x58 ./obj/cli.o
 .debug_ranges  0x0000000000000098      0x140 ./obj/comm.o
 .debug_ranges  0x00000000000001d8       0x70 ./obj/comm_lib.o
 .debug_ranges  0x0000000000000248       0x48 ./obj/Debug_Lib.o
 .debug_ranges  0x0000000000000290      0x1c0 ./obj/frame.o
 .debug_ranges  0x0000000000000450       0xe0 ./obj/util.o
 .debug_ranges  0x0000000000000530       0x38 ./obj/devicelib.o
 .debug_ranges  0x0000000000000568       0x20 ./obj/BT_Comm.o
 .debug_ranges  0x0000000000000588      0x120 ./obj/down_load.o
 .debug_ranges  0x00000000000006a8       0x80 ./obj/udp_comm.o
 .debug_ranges  0x0000000000000728      0x5b0 ./obj/lsh_udp_comm.o
 .debug_ranges  0x0000000000000cd8      0x200 ./obj/auto_cofig_proc.o
 .debug_ranges  0x0000000000000ed8      0x230 ./obj/PAU_comm.o
 .debug_ranges  0x0000000000001108      0x210 ./obj/psu_comm.o
 .debug_ranges  0x0000000000001318      0x278 ./obj/alarm.o
 .debug_ranges  0x0000000000001590      0x288 ./obj/algorithm_rf.o
 .debug_ranges  0x0000000000001818     0x1280 ./obj/protocol.o
 .debug_ranges  0x0000000000002a98     0x1448 ./obj/control.o
 .debug_ranges  0x0000000000003ee0       0x48 ./obj/spi.o
 .debug_ranges  0x0000000000003f28     0x2870 ./obj/FPGA_Reg.o
 .debug_ranges  0x0000000000006798      0x128 ./obj/inventory.o
 .debug_ranges  0x00000000000068c0      0x1f0 ./obj/nms_alarm.o
 .debug_ranges  0x0000000000006ab0      0x268 ./obj/log_file.o
 .debug_ranges  0x0000000000006d18       0x68 ./obj/i2c_dev.o
 .debug_ranges  0x0000000000006d80       0xd0 ./obj/log_reset.o
 .debug_ranges  0x0000000000006e50       0xc8 ./obj/log_event.o
 .debug_ranges  0x0000000000006f18       0x18 ./obj/ADC_ic.o
 .debug_ranges  0x0000000000006f30      0x398 ./obj/uda_proc.o
 .debug_ranges  0x00000000000072c8      0x458 ./obj/rems.o
 .debug_ranges  0x0000000000007720       0xa8 ./obj/spectrum.o
 .debug_ranges  0x00000000000077c8       0x20 /opt/poky/2.2.1/sysroots/cortexa8hf-neon-poky-linux-gnueabi/usr/lib/crtn.o

.debug_macro
 *(.debug_macro)

.gnu.attributes
 *(.gnu.attributes)

.note.gnu.arm.ident
 *(.note.gnu.arm.ident)

/DISCARD/
 *(.note.GNU-stack)
 *(.gnu_debuglink)
 *(.gnu.lto_*)
OUTPUT(RCU_App_DN elf32-littlearm)
